(lp1
(dp2
S'url'
p3
Vwww.techradar.com/news/phone-and-communications/mobile-phones/20...
p4
sS'snippet'
p5
VLooking for the best smartphone? Our definitive list checks out the iPhone 7, Galaxy S7, HTC 10 and more so your know which is right for you to buy.
p6
sS'text'
p7
(g4
S'when parsing font in try new new to load screen and screen and solid screen and only screen and solid solid header header header header header header header header header header header header header header header header header header header header header header header header header header header header header header footer footer screen and solid header screen and dotted only screen and only screen and only screen and only screen and infinite only screen and only screen and solid screen and only screen and only screen and only screen and solid solid only screen and only screen and solid only screen and only screen and only screen and only screen and only screen and solid only screen and only screen and screen and solid solid screen and solid solid solid solid solid screen and solid screen and screen and screen and screen and screen and screen and screen and screen and screen and solid solid solid solid screen and screen and screen and screen and solid solid label label label label label label solid solid screen and solid solid solid screen and screen and screen and screen and screen and screen and screen and screen and screen and screen and screen and screen and only screen and source for deals not article you requested has either been moved or removed from the the global object form the can the format of be changed server version sure all the dimensions are setup and correct is part of an international media group and leading digital our corporate and conditions policy policy with us rights and company registration number symbol symbol symbol symbol symbol el read article shared article link require function new else else else if else'
tp8
sS'id'
p9
cnumpy.core.multiarray
scalar
p10
(cnumpy
dtype
p11
(S'i8'
I0
I1
tRp12
(I3
S'<'
NNNI-1
I-1
I0
tbS'\r\x00\x00\x00\x00\x00\x00\x00'
tRp13
sS'name'
p14
VBest phone 2016: the 10 top smartphones we've tested ...
p15
sa(dp16
g3
Vwww.ebay.com/sch/i.html?_nkw=smartphones
p17
sg5
VFind great deals on eBay for smartphones and verizon smartphones. Shop with confidence.
p18
sg7
(g17
S'solid solid only screen and only screen and enable new search experience requires to be enable on your then try to main by your search in to bid or list list lists history searches elm false unlocked galaxy one smart phone unlocked galaxy under the you may not use this file except in compliance with the may obtain a copy of the at required by applicable law or agreed to in software distributed under the is distributed on an either express or the for the specific language governing permissions and limitations under the deals and best selling products for ads ending soonest newly listed lowest first highest first nearest first view results for to get alerts and updates on your to stop getting updates on your now following in your will receive alerts for new send me this search in search results by sold more like this services and international tracking provided to sold services and international tracking provided sold services and international tracking provided international shipping sold international shipping off to sold services and international tracking provided sold services and international tracking provided to sold to international shipping sold sold off services and international tracking provided watching more like this services and international tracking provided listing straight talk or more like this services and international tracking provided at international shipping watching more like this sold services and international tracking provided to international shipping sold more like this sold more like this services and international tracking provided in for more like this services and international tracking provided sold more like this services and international tracking provided sold more like this services and international tracking provided to sold services and international tracking provided to sold services and international tracking provided international shipping watching off international shipping watching watching more like this services and international tracking provided to international shipping off bids more like this services and international tracking provided sold services and international tracking provided sold more like this services and international tracking provided watching services and international tracking provided lite international shipping watching at watching more like this services and international tracking provided to more like this services and international tracking provided sold more like this services and international tracking provided sold more like this new other bids more like this services and international tracking provided to sold services and international tracking provided sold more like this services and international tracking provided watching more like this services and international tracking provided to international shipping watching condition condition to international shipping watching off sold more like this services and international tracking provided sold services and international tracking provided international shipping watching more like this services and international tracking provided watching day defect in ships in hours watching more like this services and international tracking provided international shipping sold or international shipping sold more like this sold at sold more like this services and international tracking provided to sold more like this fingerprint to international shipping off international shipping watching international shipping watching off by us what you think per for search results determines this price through a machine learned model of the sale prices within the last determines trending price through a machine learned model of the product sale prices within the last refers to a undamaged and refers to an item that has been used with highest buyer money in a business day with with highest buyer money in a business day with refinements more see see see see see see see see see see edge see see see see see other refurbished refurbished parts or not working enter a minimum maximum price before minimum price to maximum price see see see international shipping only see only accepted listings listings site navigation and about pricing page was last of bids and bid amounts may be slightly out of each listing for international shipping options and if in for new this this this new will be sent for this have reached the maximum number of saved we encountered an internal try again your enter a valid new item is on your new new more fewer other other parts or not parts or not maximum minimum minimum maximum price international international content to close selected additional additional return'
tp19
sg9
g10
(g12
S'\x13\x00\x00\x00\x00\x00\x00\x00'
tRp20
sg14
Vsmartphones | eBay
p21
sa(dp22
g3
Vhttps://www.cnet.com/topics/phones/products
p23
sg5
VSmartphone Tripod with Bluetooth Remote for $16 + free shipping. $380.00. Refurb Unlocked Apple iPhone 6s 64GB Phone for $380 + free shipping. $250.00.
p24
sg7
(g23
S'max errors sent per page text return party a script error timeout for a load timeout function new if else if where try doc dom doc if true details might have this explains what caused its that news may have been overshadowed by a leak about next flagship if queuing for smart home devices our smart apartment our smart house to queuing for phones phones phones queuing for to to to and to not specified carriers more more system system more phone phone options queuing for of from leather and ruby while including fully encrypted the is the phone for the wealthy and tries to be a great camera and a phone at but not great at being it looks similar to the unveiled in late last the has a better camera and slight design the expected at will likely do away with modular accessories and embrace water queuing for phone surprisingly not called is now official and packs pretty decent midrange specs for just shimmer gold has a luxurious build overshadowed by and poor performance better off with the or a cheaper runs the and is already on sale in but make its debut in the rest of the world at the end of almost certainly at the largest mobile queuing for smaller of new phones pairs software smarts with a more size and midrange are says it wants to use to fix it for red battery life and camera make it a great even if it as as more special sensor can tell you how sweet your food is and your body fat phone finally slices its way to the queuing for uses that juice to power a system with optical cameras and specs add up to a lot of so long as the and keyboards go together like peanut butter and jelly on the phone known as peach cloud more to life than looking and this series proves it with water resistant features and front and rear has two rear a seriously low price tag and a battery that promises to last two pink gold from is the answer for savvy doodlers looking for a queuing for and for free shipping for free shipping for free shipping queuing for for free shipping for free shipping free shipping queuing for queuing for queuing for queuing for queuing for queuing for of queuing for function if else if if if new new new new in in in in a a a try'
tp25
sg9
g10
(g12
S'\x06\x00\x00\x00\x00\x00\x00\x00'
tRp26
sg14
VPhone Reviews - CNET
p27
sa(dp28
g3
Vsmartphones.specout.com
p29
sg5
VThe image resolution, which is measured in megapixels, of a smartphone's rear camera. The more megapixels, the higher resolution the images produced will be.
p30
sg7
(g29
S'has been you believe that you should not have been you can the site admin at at dot'
tp31
sg9
g10
(g12
S'\x0c\x00\x00\x00\x00\x00\x00\x00'
tRp32
sg14
VCompare Best Smartphones of 2016 - Reviews and Prices
p33
sa(dp34
g3
Vwww.samsung.com/us/mobile/phones
p35
sg5
VMust-have apps for your smartphone. Samsung Pay. Turn your phone into your wallet. GET THE APP. Samsung Smart Switch.
p36
sg7
(g35
S'if if else for of to with for of to with to close menu clear all to begin adding products from a new have products ready to or hit to add water water edge and edge and the right for you with other phones flip phones and more to of to the the switch and bring more with edge the for your your phone into your messages and more from your old phone to your new resistant up to feet of water for up to rinse after to of as it a for to up get off up and get off your first order of or to find the best tech at the best prices and news on our latest technology and exclusive must be a of or valid only for new sign up for by code must be used by your for a discount code for off your first like you are already a subscriber and eligible for this one time went try shopping even easiest way to shop quick free standard and the app app standard app standard function shop app shop app function shop app shop app function shop app shop shop app shop app function shop app shop'
tp37
sg9
g10
(g12
S'\x0e\x00\x00\x00\x00\x00\x00\x00'
tRp38
sg14
VMobile - Phones | Samsung US
p39
sa(dp40
g3
Vwww.ebay.com/sch/i.html?_nkw=smartphone
p41
sg5
VFind great deals on eBay for smartphone and smartphone unlocked. Shop with confidence.
p42
sg7
(g41
S'solid solid only screen and only screen and enable new search experience requires to be enable on your then try to main by your search in to bid or list list lists history searches elm false unlocked android galaxy one galaxy under the you may not use this file except in compliance with the may obtain a copy of the at required by applicable law or agreed to in software distributed under the is distributed on an either express or the for the specific language governing permissions and limitations under the deals and best selling products for ads ending soonest newly listed lowest first highest first nearest first view results for to get alerts and updates on your to stop getting updates on your now following in your will receive alerts for new send me this search in search results by to sold services and international tracking provided to sold services and international tracking provided sold more like this services and international tracking provided services and international tracking provided to sold sold services and international tracking provided to international shipping sold to sold services and international tracking provided sold services and international tracking provided to international shipping watching off to sold services and international tracking provided sold services and international tracking provided new other bids more like this services and international tracking provided sold off services and international tracking provided to watching at sold more like this services and international tracking provided sold more like this services and international tracking provided bids more like this services and international tracking provided sold more like this services and international tracking provided sold services and international tracking provided more like this services and international tracking provided to sold services and international tracking provided by watching to international shipping watching sold more like this sold services and international tracking provided at watching more like this services and international tracking provided by sold off to international shipping watching at watching more like this services and international tracking provided international shipping sold to sold services and international tracking provided bids more like this services and international tracking provided finger to international shipping off to international shipping off sold more like this services and international tracking provided condition condition to international shipping watching off bids more like this to international shipping watching more like this services and international tracking provided sold services and international tracking provided to international shipping sold at international shipping watching more like this to watching more like this listing off more like this services and international tracking provided lite international shipping watching sold international shipping on to watching to international shipping watching watching more like this services and international tracking provided or international shipping sold more like this by us what you think per for search results determines this price through a machine learned model of the sale prices within the last determines trending price through a machine learned model of the product sale prices within the last refers to a undamaged and refers to an item that has been used with highest buyer money in a business day with with highest buyer money in a business day with refinements more see see see see see see see see see edge see see or see see see see other refurbished refurbished parts or not working enter a minimum maximum price before minimum price to maximum price see see see international shipping only see only accepted listings listings site navigation and about pricing page was last of bids and bid amounts may be slightly out of each listing for international shipping options and if in for new this this this new will be sent for this have reached the maximum number of saved we encountered an internal try again your enter a valid new item is on your new new more fewer or other other parts or not parts or not maximum minimum minimum maximum price international international content to close selected additional additional return'
tp43
sg9
g10
(g12
S'\t\x00\x00\x00\x00\x00\x00\x00'
tRp44
sg14
Vsmartphone | eBay
p45
sa(dp46
g3
Vhttps://en.wikipedia.org/wiki/Smartphone
p47
sg5
VA smartphone is a mobile phone (also known as cell phones or cell mobiles) with an advanced mobile operating system that combines features of a personal ...
p48
sg7
(g47
S'template with external articles with dead external with dead external links from with permanently dead external with dead external links from dates from pages needing factual articles needing factual verification from articles with with statements from with statements from with statements from articles with articles with phones introduced in fads and fads and introductions in introduced in module the free encyclopedia search function redirects the song by see to be confused with array of various person using a to take a digital is a mobile phone known as cell phones or cell with an advanced mobile operating system that combines features of a personal computer operating system with other features useful for mobile or which are usually typically combine the features of a mobile such as the abilities to place and receive voice calls and create and receive text with those of other popular digital mobile devices like personal digital assistants such as an event media video digital camera and digital video can access the and can run a variety of software components from typically have a color display with a graphical user interface that covers more than of the front display is almost always a and sometimes additionally a keyboard like the which enables the user to use a virtual keyboard to type words and numbers and press icons to activate the firm released the first to achieve mass adoption within a became widespread in the late of those produced from onward have mobile broadband motion and mobile payment the third quarter of one billion were in use sales surpassed the sales figures for regular cell phones in early years adoption systems technological developments possible developments operating systems operating systems app stores manufacturer operating system driving with feature phones also and references first caller identification receiver that combined telephony and computing were first conceptualized by in and in and patented in and were offered for sale beginning in was the first to introduce the concepts of data processing and visual display screens into while he was working with in demonstrated a transmitter and receiver that provided additional ways to communicate with remote however it did not yet have general purpose applications in a wireless device typical of were installed at in and were demonstrated to several telephone original and historic working models are still in the possession of and charging base first mobile phone to incorporate features was a prototype developed by in while at and demonstrated that year at the computer industry trade included features and other visionary mobile applications such as stock reports and refined version was marketed to consumers in by under the name was the first commercially available device that could be properly referred to as a although it was not called that in addition to placing and receiving cellular could send and receive faxes and and included an address appointment world time clock and utilizing its touch screen term appeared in print as early as describing source digital assistant the many mobile phone users carried a separate dedicated running early versions of operating systems such as or operating systems would later evolve into mobile operating released the a modified that supported a phone with software to support had a resolution compatible screen and could be used to place and receive and to create and receive text and was also allowing it to run thousands of existing software including early versions of released the a digital cellular phone based on the with an integrated based on the operating system from two components were attached by a hinge in what became known as a clamshell with the display above and a physical keyboard provided address calculator and notebook and could send and receive the device could be used as a digital cellular released the a digital with an integrated and landmark devices by first device marketed as a it combined the functions of a mobile phone and and supported limited browsing with a resistive utilizing a introduced by a with a mobile it operated on the and supported limited the first to combine the and a phone with and access fully integrated into the before and phones typically used the operating developed by it was the most widely used operating system until the last quarter of the firm released the first to achieve mass adoption within a phones ran on which provided data transmission speeds up to future generations of wireless used a language which restricted some aspects of traditional in favor of increasing data speed for the small screens and limited bandwidth allowed for phones to use the slower data speeds rise of helped accumulate an estimated million subscribers by the end of was also ranked first in market capitalization in and second power would wane in the face of the rise of and new phones with advanced wireless network were still rare until the introduction of the in which saw moderate success in the as the in the devices based on started to gain popularity among business users in the later gained mass adoption in the and users popularized the term in due to its addictive company first released its and devices in was the most popular in during the middle to late devices were focused on similar to and devices at the started producing popularized by the with the exception of the trend was similar to that of launched the first to use the the initial release was limited to a single handset only available in the the intention was to eventually use on most of its including the models to use such as the in and several successors to the line would be unveiled through late released the the first of to run the operating early introduced the one of the first to use a was notable for its use of a large for direct finger input as its main means of instead of a or keypad typical for at the the first phone to use called the known as the was is an platform founded by and now owned by adoption was relatively slow at it started to gain widespread popularity in and in early dominated the market share which continues to this new platforms led to the decline of earlier for started a new from called abandoned and partnered with to use on its then became the was bought by and later sold to for use on smart formerly known as also made a new platform based on which was later capacitive also changed form it was common for devices to have a physical numeric keypad or physical keyboard in either a or sliding form by mid almost all were technological running the company launched its first at the to address concerns regarding the of materials in the late commenced production of a designed entirely around encryption and identity the first curved technology were introduced to the retail market with the sale of the and phones with more bends and folds in the screens were expected in and made their way into mainstream high end including the and this feature was confined to special phones designed for outdoor early were beginning to use on screens with up to on devices such as the which is a significant improvement over is used in advanced televisions and computer but with or less on such larger networks were used a lot for became more prevalent and easier to connect it was predicted that phone services will start to take introduced lasers on the to help camera some had such good digital cameras that they could be categorized as cameras with large sensors up to with and can store their pictures in proprietary raw image but the serves open source were increasingly integrated with everyday credit mobile and mobile banking were integrated into applications and as a recent technological innovations are causing the role of traditional keys to be fused into the because a can act as a digital key and access badge for its announced a feature that allows users to connect their devices to an external monitor via adds a layer to the with their which enables user to run a app by a first modular available to the public was the which was released in most users can remove and replace parts on this possible have been anticipated for years but have failed to materialize because of the relatively high failure rate when producing these creating a battery that can be folded is another device of the main characteristics of is their usually fills most of the front surface screen size usually defines the size of a have an aspect ratio of some are or other are measured in diagonal starting from with screens larger than inches are often called with screens over inches commonly are shifted while using a single since most thumbs cannot reach the entire screen or used in place with both displays are the most others are and the which can be used by visually impaired people are being is expected that screens will use some type of selection of protective small in the corner is to enable the person to use the digital with a range of accessories are sold for including screen power charging combined which allow a person to use the phone without holding it to the and powered speakers that enable users to listen to music files stored on their range from relatively inexpensive rubber or soft plastic cases which provide moderate protection from bumps and good protection from scratches to more cases that combine a rubber padding with a hard outer cases have a with a cover that the user opens to use the when the cover is it protects the cases have additional pockets for credit thus enabling people to use them as include products sold by the manufacturer of the and compatible products made by other operating operating system is a mobile operating system developed by and backed by an industry consortium known as the is an open source platform with optional proprietary including a suite of flagship software for and the application and content storefront was officially introduced via the release of its inaugural the on an open source has also been the subject of groups have used the source code to develop and distribute their own modified versions of the operating such as to add features to the and provide newer versions of to devices that no longer receive official updates from their versions of have also been adopted by other such as who used its on a range of tablets and the it is a platform that has shipped on devices covering a wide range of market has seen significant estimated that million were sold during the fourth quarter of leading all other who produces was also the top vendor across all platforms in the same period of is the in is a proprietary mobile operating system developed by primarily for its product was first unveiled in device introduced numerous design concepts that have been adopted by modern such as the use of gestures for eschewing physical controls such as physical keyboards in favor of those rendered by the operating system itself on its the and the use of making features and controls within the user interface resemble objects and concepts in order to improve their introduced the a centralized storefront for purchasing new software for can also integrate with desktop music program to sync media to a personal dependency on a was removed with the introduction of on later versions of which provides synchronization of user data via servers between multiple early dominance was credited with reshaping the and helping make one of the most valuable publicly traded companies by the and have generally been in second place in worldwide market known as is from is closed source and has the third largest installed base on behind and on includes a user interface inspired by is integrated with services such as and games and but also integrates with many other services such as and devices are made primarily by and also by and announced that its brand will be phased out and replaced with bringing tighter integration and unification with its counterpart and provide a platform for and tablets with screen sizes under series has had poor that also led to a decrease in and some vendors ended their support for of global market share dropped below is a operating system for including smart and smart is a project within the and is governed by a composed of and among released the and the running is the first produced by that runs it was released in the market on is based on the kernel and includes a partially or completely proprietary user interface programmed by user interface differentiate from is intended to be a system made by many of the which left to form utilizing funding from program which helps establish and support companies formed by known as is a mobile version of the operating system developed by and is designed primarily for mobile devices such as and tablet operating early started making new devices on a new platform named which is based on their to replace the the company start to release based on other operating systems from with the they claim their would be no new devices of and they would still support the released its first providing secure communications on wireless such as provide the integration of all communications into a single announced that the millionth was of there were around million active service early has undergone a platform changing its company name to and making new devices on a new platform named was based on the kernel and first appeared as the operating its the operating system was available in both and was supplied with a suite of applications developed with the and was designed to have features and appearance somewhat similar to desktop versions of parties could develop software for with no restrictions imposed by applications were eventually purchasable from for during the brief was eventually phased out in favor of screen of was originally developed by as was the most widely used operating system until though the platform never gained popularity in the as it did in and first the was released in and was the first device marketed as a combined a with a mobile of began to most notably and each supported by different the creation of in was unified under one variant under the stewardship of announced that it would replace with as the operating system on all of its future with the platform being abandoned over the following few was demonstrated by in was designed to have a complete alternative system for mobile using open standards and first commercially available phones were and of more companies had partnered with including was making a smart with and announced that it would phase out development of for and would reposition the project to focus on other forms of operating system for was announced by in first phone was the released in shipped million phones running in of merged with a similar platform called is a proprietary mobile operating system running on the initially developed by which launched with the being acquired by two phones and the and a tablet running were introduced in announced that hardware was to be but would continue to support and update software and develop the released as open source under the name and plans to update it with additional announced the sale of to who used the operating system for its current or but not has announced that it has acquired technology patents from which includes all the late launched the phone module with limited released the which did not support with both a and a full had wireless web a contact organizer and mobile applications that could be downloaded or synced with a was purchased by which released the and continued releasing devices with a few devices using and is an operating system created from the source code of by and by used on some of its and tablets as and was originally envisioned to power a variety of devices from tablets to and smart the only which used was the and decision to move to in and to cease the canceled in in favor of the development of app of digital distribution platforms for mobile devices introduction of for the and in popularized distribution for applications and computer focused on a single are a huge variety of including video music products and business until that application distribution depended on sources providing applications for multiple such as and the success of the other manufacturers launched application such as and in of mobile developers were targeting first for mobile app shipments have had positive of all photographs created were taken with a study concluded that out of owners use the device to shop sales surpassed the sales figures for feature phones in early shipments of topped billion units in up from while comprising a share of the mobile phone market in up from in for the first time the shipments dropped by percent year on situation was caused by the maturing and had the highest shipment market share followed by had market a slight increase from in while was at a decrease from in and were at about significantly better than while others had about the same as the previous years lost market although their shipment volume still increased by the rest had significant increases in shipment volumes of to had a share and had had a share and had had a share and had operating operating system market share for market has been dominated by the operating system since market share by units rose from in to of the market in market share oscillated between to during the same market share also oscillated between to during the same time of the end of was the most popular operating with a market followed by with with and all others with phone overuse of study found that unprotected adolescent sexual activity was more common among owners of study conducted by the concluded that or any backlit can seriously affect sleep persons might become psychologically attached to resulting in anxiety when separated from the combination of and is a walking person using a and not paying attention as they possibly risking an accident in the an increasing social issue of users led to the temporary creation of a for walking in issue of distracted users led the city of to embed pedestrian traffic lights in the phones and driving safety while driving driver using two mobile phones at phone use while including talking on the or operating other phone is common but is widely considered dangerous due to distracted distracted while operating a motor vehicle has been shown to increase the risk of the reported that people were killed by drivers distracted by cell a insurance announced the results of a study which showed of drivers surveyed accessed the on a while jurisdictions prohibit the use of mobile phones while and both and use of a mobile phone uses a is other countries including the and and in many only phone use is while use is study reported that over of college students surveyed text reply or while scientific literature on the dangers of driving while sending a text message from a mobile or while is simulation study at the of found a sixfold increase in accidents when to the increasing complexity of this has introduced additional difficulties for law enforcement officials when attempting to distinguish one usage from another in drivers using their is more apparent in countries which ban both and rather than those which ban use as officials cannot easily tell which function of the mobile phone is being used simply by looking at the can lead to drivers being stopped for using their device illegally for a phone call in they were using the device for when using the incorporated controls for car or sign along in states that using mobile phones while driving is prohibited from am to am and from pm to pm study reviewed the incidence of mobile phone use while cycling and its effects on and a national survey in the reported the number of drivers who reported using their to access the while driving had risen to nearly one of study conducted by the of examined approaches for reducing inappropriate and problematic use of mobile such as using mobile phones while involving a driver being distracted by talking on a mobile phone have begun to be prosecuted as negligence similar to the from motorists who are caught using a mobile phone while driving will have three penalty points added to their license in addition to the fine of increase was introduced to try to stem the increase in drivers ignoring the prohibits all mobile phone use while including use of has banned hand held use since states in the have banned on cell phones while became the state to enforce this of states had banned while with becoming the most recent addition on maintains a list of distracted driving laws in the database of laws provides a comprehensive view of the provisions of laws that restrict the use of mobile communication devices while driving for all states and the of between when first law was passed through contains information on continuous or categorical variables for activities regulated versus versus targeted and wars between and started when the latter claimed that the original phone copied the interface and possibly the hardware of for the was also patents licensing and litigation involving and among conflict is part of the wider between multinational technology and software secure and increase their market companies granted a patent can sue to prevent competitors from using the methods the patent the number of and trade complaints based on patents and designs in the market for and devices based on such as and has increased licence and other major events began in as the market grew more app the rise in number of mobile medical in the market government regulatory agencies raised concerns on the safety of the use of such concerns were transformed into regulation initiatives worldwide with the aim of safeguarding users from medical and is easily distributed through an insecure app is hidden in pirated versions of legitimate which are then distributed through app risk also comes from known as an where a legitimate application is later changed to include a which users then install when they are notified that the app has been one out of three robberies in in the involved the theft of a mobile petition has urged makers to install kill switches in their my and can disable phones that have been in version devices can be rendered unrecoverable to even own recovery tools if incorrectly authenticated or dissociated from their media and sleep late at night can disturb due to the brightly lit screen affecting levels and sleep an effort to alleviate these several that change the color temperature of a screen to a warmer hue based on the time of day to reduce the amount of blue light generated have been developed for while integrated functionality known as released a feature known as in their and has also been theorized that for some addicted use of their especially before they go to can result in people also use their phones as alarm which can also lead to loss of with feature have presented issues similar to those affecting other mobile there are some issues which are unique to portable battery to earlier mobile battery life has generally been due to the significant power requirements of their computer systems and color battery life has negatively affected customer is also a trend towards using batteries that the user cannot users have addressed the challenge of limited battery life by purchasing additional chargers for use outside the at and in cars and by buying portable external battery packs include generic models which are connected to the with a cable and models that onto a had to recall millions of the due to a battery a portmanteau of the words phone and describes with larger is also used by some companies to market phones with unusually large screens and other expensive premium is a term used to identify a which has top of the line portal has media related to of phone of mobile phone standards of mobile phone standards of mobile software distribution platforms operating system broadband device screen zombie and a feature phone arms race heats which did you never went user base hits a now outsell for and and for of a and the was the first years it envisioned our mobile squeezing the features of a cell fax and computer into an black putting finger on first celebrates of first at the a for of is at this point that early usability test participants met switch connected to our is expecting the typical was demonstrated at the wireless service went from fad to and turned into the first and the of the and in and of the of the of the unveils first smart of with of with is not a the at the market share data is so shifty about how it makes the coming anytime at the to you really need a from the original on from the original on from the original on announces with introduces payments for and latest to for phones is designed to be your and coming anytime soon at the the for screens iron grip on open source by any means retail stores to carry fragmentation than but says why broken promise of unlocked needs to be gets a belated the a phones fade further in sales in of and to on to on the met years ago unveils best features in comes up third in clash two years is has a new app of in of wrist and former employees start businesses of their funds new on phones a you need to know about the has no plans to release new devices things to know about and how much trouble it is in pact to rival to by for on to first hits the dead via away a shipments up to million units in news with dead via next chapter for purchases patents from at the on the with and at the killing now take almost of for the to dead via van not just market shrinks for the first time a of in of and sales may have topped billion in depending on who you breaks into global top for kicks out and beats in make have with and of sight is not out of impact of restricting wireless mobile device use on anxiety levels among moderate and high in hit by curse of the city embedded traffic lights in the sidewalks so that users don have to look up yourself and of drivers using behind the study to and in and not illegal but data clear on its peril de and phone use while and effects on and pp still surfing while survey finds the of a face new phone penalties talk to ban while driving while driving other new laws take effect et regulation of mobile medical on a on in to warn of growing note is far urges phone started with in version your gadgets from keeping you awake at of keep my and tablet out of my disrupting your off your at night makes you more and has a on and secret behind poor battery and for time to kiss that removable battery the for a retrieved the of a a vs the sizes of computers personal computer supercomputer arcade cabinet board console kiosk speaker replacement device appliance computer organizer phone phone game console data terminal wristwatch watch ring box form factor computer sensor network phones services system airplane mode browsing computing advertising campaigns donating local address book mobile phone culture silent mode phone phone phone phone phone phone lock factors devices rooting mobile phones devices devices and health thumb safety waste power supply vibration syndrome and health restrictions while driving of recording by civilians and the law tapping while driving phones in prison capacity operator list comparison adoption operating systems kernel platform for with platform platforms of mobile operating systems of mobile software distribution platforms application development satellite network telegraph telegraph media phone telecommunication telegraphy mobile phone communications signals history of communication technology telegraph line language de media radiation cable optical communication communication fiber topology and switching node switching exchange network network equipment control from phones introduced in fads and fads and introductions in introduced in template with external articles with dead external with dead external links from with permanently dead external with dead external links from dates from pages needing factual articles needing factual verification from articles with with statements from with statements from with statements from articles with articles with identifiers menu tools logged in history to store page links this page a as version other projects a links page was last modified on at is available under the additional terms may using this you agree to the of and is a registered trademark of the a policy statement view'
tp49
sg9
g10
(g12
S'\x00\x00\x00\x00\x00\x00\x00\x00'
tRp50
sg14
VSmartphone - Wikipedia
p51
sa(dp52
g3
g23
sg5
g24
sg7
(g23
S'max errors sent per page text return party a script error timeout for a load timeout function new if else if where try doc dom doc if true details might have this explains what caused its that news may have been overshadowed by a leak about next flagship if queuing for smart home devices our smart apartment our smart house to queuing for phones phones phones queuing for to to to and to not specified carriers more more system system more phone phone options queuing for of from leather and ruby while including fully encrypted the is the phone for the wealthy and tries to be a great camera and a phone at but not great at being it looks similar to the unveiled in late last the has a better camera and slight design the expected at will likely do away with modular accessories and embrace water queuing for phone surprisingly not called is now official and packs pretty decent midrange specs for just shimmer gold has a luxurious build overshadowed by and poor performance better off with the or a cheaper runs the and is already on sale in but make its debut in the rest of the world at the end of almost certainly at the largest mobile queuing for smaller of new phones pairs software smarts with a more size and midrange are says it wants to use to fix it for red battery life and camera make it a great even if it as as more special sensor can tell you how sweet your food is and your body fat phone finally slices its way to the queuing for uses that juice to power a system with optical cameras and specs add up to a lot of so long as the and keyboards go together like peanut butter and jelly on the phone known as peach cloud more to life than looking and this series proves it with water resistant features and front and rear has two rear a seriously low price tag and a battery that promises to last two pink gold from is the answer for savvy doodlers looking for a queuing for and for free shipping for free shipping for free shipping queuing for for free shipping for free shipping free shipping queuing for queuing for queuing for queuing for queuing for queuing for of queuing for function if else if if if new new new new in in in in a a a try'
tp53
sg9
g10
(g12
S'\x06\x00\x00\x00\x00\x00\x00\x00'
tRp54
sg14
g27
sa(dp55
g3
Vhttps://www.t-mobile.com/cell-phones#!
p56
sg5
VThink a great smartphone is too expensive? Think again. Shop our selection of fully-featured smartphones at affordable prices. Shop now
p57
sg7
(g56
S'our new'
tp58
sg9
g10
(g12
S'\x08\x00\x00\x00\x00\x00\x00\x00'
tRp59
sg14
VSmartphones & Cell Phones | Compare our Best Cell Phones ...
p60
sa(dp61
g3
Vhttps://www.lifewire.com/what-makes-a-smartphone-smart-579597
p62
sg5
VNot all cell phones are smartphones. So, how, exactly, is a smartphone different than a cell phone, and what makes it so smart?
p63
sg7
(g62
S'is a in in with a long description of the remove on client all cell phones are is a different than a cell and what makes it so is a a a a a all cell phones are is a different than a cell and what makes it so probably hear the term tossed around a if ever wondered exactly what a not is a different than a cell and what makes it so a a is a device that lets you make telephone but also adds in features in the you would have found only on a personal digital assistant or a as the ability to send and receive and edit for to really understand what a is is and whether should buy start with a history the there were cell phones and personal digital assistants phones were used for making not much like the were used as portable could store your contact info and a and could sync with your gained wireless and were able to send and receive gained then added cellular phone while cell phones added more even result was the there is no standard definition of the term across the we thought it would be helpful to point out what we here at define as a and what we consider a cell are the features we look a will be based an operating that allows it to run runs the and run the devices run and almost all cell phones include some sort of software the most basic models these days include address or some sort of contact for a will have the ability to do may allow you to create and edit at least the may allow you to download such as personal and business finance handy personal almost it may allow you to edit get directions via and create a of digital can access the at higher thanks to the growth of and data as well the addition of to many while not all offer they all offer some sort of can use your to browse your favorite our a includes a means that the keys are laid out in the same manner they would be on your computer in alphabetical order on top of a numeric where you have to tap the number to enter an or keyboard can be hardware keys that you type or software a touch like find on the cell phones can send and receive but what sets a apart is its handling of can sync with your personal most your professional can support multiple include access to the popular instant like and are just some of the features that make a technology surrounding and cell phones is constantly constitutes may change by next next or next the to an on a the site a tackle the what is a and why is it so by probably hear the term tossed around a if ever wondered exactly what a not is a different than a cell and what makes it so a a is a device that lets you make telephone but also adds in features in the you would have found only on a personal digital assistant or a as the ability to send and receive and edit for to really understand what a is is and whether you should buy start with a history the there were cell phones and personal digital assistants phones were used for making not much like the were used as portable could store your contact info and a and could sync with your gained wireless and were able to send and receive gained then added cellular phone while cell phones added more even result was the there is no standard definition of the term across the we thought it would be helpful to point out what we here at define as a and what we consider a cell are the features we look a will be based on an operating system that allows it to run runs the and run the devices run and almost all cell phones include some sort of software the most basic models these days include an address book or some sort of contact for a will have the ability to do may allow you to create and edit at least view the may allow you to download such as personal and business finance handy personal almost it may allow you to edit get directions via and create a of digital can access the at higher thanks to the growth of and data as well as the addition of support to many while not all offer they all offer some sort of can use your to browse your favorite our a includes a means that the keys are laid out in the same manner they would be on your computer in alphabetical order on top of a numeric where you have to tap the number to enter an or keyboard can be hardware keys that you type or software a touch like find on the cell phones can send and receive text but what sets a apart is its handling of can sync with your personal most your professional can support multiple include access to the popular instant like and are just some of the features that make a technology surrounding and cell phones is constantly constitutes a today may change by next next or next the to an on an or to an is in and the or for for is a an or to an is in a a for to or in for and in the was an try enter a valid you for signing of rights where try doc dom doc uses this if using the approach function new false if is a reference to the global object else if we use and look for if if is a reference to the global object article if all cell phones are is a different than a cell and what makes it so is a a a true'
tp64
sg9
g10
(g12
S'\x04\x00\x00\x00\x00\x00\x00\x00'
tRp65
sg14
VWhat is a Smartphone? - lifewire.com
p66
sa(dp67
g3
Vpocketnow.com
p68
sg5
VSmartphone, Tablet, and Wearable Reviews, Videos, Editorials and News. Recent Posts. Apple wins smartphone, tablet, laptop and online music trophies for customer ...
p69
sg7
(g68
S"modifications to the theme and and function loc ga visible block visible left center block none visible block none block block visible block visible none block block solid transparent solid transparent solid transparent solid solid transparent solid transparent transparent solid solid solid solid width width the white white undefined blackberry blazer elaine fennec iris kindle opera phone plucker pocket windows a wa ca ny ll cell craw ll os wa gene a go idea iris jigs lynx de do on ma ms ny mc it whit your you for supporting our site and know we appreciate your you for becoming our you for supporting our site and know we appreciate your you for becoming our for need to pay our bills to keep the site the if you change your are committed to protecting your re committed to hosting safe ads and respecting your do not share your rest can feel safe if you continue supporting ads are creeping me are committed to delivering a fast ads will not slow down the you are welcome to try the light ads feel advertising slows down the only support ads will not block not initiate sound and defiantly no we promise a advertising don't like intrusive comes monitor each ad and filter out any and inappropriate we don take safety for can run and get ads what you re here our content always and will be donating for an experience helps us keep the lights hate get ads what you re here our content always and will be donating for an experience helps us keep the lights me wish to use ad get ads for help us improve our user please share why you wish to block ads on our to our undefined new null undefined null new new new new new new new new undefined null in in new in in undefined new new undefined null new undefined null make a state of it sucks takes in mini investigating after customer gets named goes for jugular with cheaper unlimited data plan for limited on will feature software navigation buttons and launch on will feature software navigation buttons and launch on mini makes waves in gets discounted in on now caught on camera randomly exploding in on your with state of it sucks investigating after customer gets named are we still using instant at tipped to play it safe with removable battery dropped in favor of water resistance for the on the table screen will remind you it from the real deal state of it takes in investigating after customer gets named goes for jugular with cheaper unlimited data plan for limited makes web page reloads significantly especially on offers whopping savings on kit with camera makes web page reloads significantly especially on are we still using instant at on expected to include as soon as this lets you save on select models with how to build and save over with benchmarked with same old make a and this veteran and headset maker moves to it bridge and fitness takes into it bridge and fitness posts make a say might be releasing its own many cooks in the or time to stand out from the is pm state of it battery optimization claims our own in his him out in this video and let us know if you am takes in smaller of the phones from still has powerful sound and a more stock available for pm this your tech armory without spending a dime by entering this giveaway for a and a enjoy total mobile computing freedom with the portable and the incredible power of flagship the brand new addition to the series is already collecting rave reviews from the likes of and so you can rest assured getting a couple of pieces of and for investigating after customer gets named one customer could call support team a it would probably be the lot of calling just pm goes for jugular with cheaper unlimited data plan for limited says you don't need unlimited gives new customers everything they want for a measly a am makes web page reloads significantly especially on one to rest on its continues to improve the performance of the widely beloved web mainly for mobile am offers whopping savings on kit with camera of paying a grand total of for the unlocked modular phone and camera you can get the bundle at am are we still using instant at we really need a instant our friends have to install them out here if a better am washable is now also resistant to foaming body has a washable slated for a launch in with both hand and body soap resistance in am scores record million sales in but and brands continues to comfortably dominate shipments in despite the rapid growth of several and minor am tipped to play it safe with removable battery dropped in favor of water know that battery you liked so much about last year's and probably have to make do without one on the am for the on the table supposedly has plenty on its plate in order to fix up flaws and improve on its first impressions made with its first am and rumors are sprouting up ll try to collect the newest might be stepping up its game while gains a new for there will not be an not any time plus we answer viewer so make sure you re charged and ready for the the live video broadcast from on or check out the audio version right folks watching you can comment pm screen will remind you it from a will say so right from the top of the once you turn it this really a pm on expected to include as soon as this on is already comprises and has just been an odd fruit pm will feature software navigation buttons and launch is reporting that the phone will come in two sizes with screens and shake up the hardware pm says it still working with for semiconductor company is addressing multiple allegations made by the and regulators in its earnings pm is officially coming soon to as teased on the cat is now out of the as on the and reveals is on its sure way to pm boosts data allotment on select free phones also on offer for subsidiary challenges prepaid rival with more more as well as many free phones for switchers to choose am earnings but outlook bright under new and a drip of something to celebrate in and incoming chairman am for is delayed a little in still coming this to failed and is no longer scheduled to roll out to the this am coming to the could be just what got some interesting news last week from indicate that the program might be hitting those of you who don a or series of it is basically an instruction manual on what components could be used to deliver a pure those three words together is bound to set the salivary glands into is an geek it one we thought died with the called by some am lets you save on select models with getting a little long in the but at off with an extended feels like a solid am make a state of it are we still using instant at coming to the could be just what with and and of the off the and some early teasers dissatisfied that his speaker issue ends in of for on for on a phone a pipe state of it it bridge and fitness finally gets an update app review in rights reserved and and loader tag else else verify that you are not a loader tag else else loader tag else else"
tp70
sg9
g10
(g12
S'+\x00\x00\x00\x00\x00\x00\x00'
tRp71
sg14
Vpocketnow.com - Official Site
p72
sa(dp73
g3
Vhttps://www.wirefly.com/smartphones
p74
sg5
VCompare smartphones and get smartphone deals including the Apple iPhone and Android smartphones at Wirefly. Find the best smartphones for you using our unique tool.
p75
sg7
(g74
S'form the and for helps you save on cell phones and plans by offering innovative comparison tools so consumers can make educated saving today with and vs the helps you save on service by offering innovative comparison tools to compare providers in your by your current connection with our speed test and see what services your provider can out your download upload and everyone these days carries a and for good more than are very powerful tools that enable you to get things the available selection of available today from a variety of carriers using the tool memory more and for off select plus free device payment and free device payment and free device payment plus free device payment plus free at checkout to receive your device payment activation on select free code at device payment activation plus free device payment plus free device payment on device payment activation next last so much to choose from when it comes to finding the best for where comes let you compare phones by so many different factors operating form and on home phone the and for helps you save on cell phones and plans by offering innovative comparison tools so consumers can make educated saving today with and and too much for or our tool to compare and bundled and offers great deals on a large selection of cell mobile and other wireless devices for the most popular innovative cell phone and plan comparison tools to ensure you are getting the best deal on the with confidence knowing that wants to help you find the best prices on cell cell phone and for of if residential some an results po if new cd new'
tp76
sg9
g10
(g12
S'Y\x00\x00\x00\x00\x00\x00\x00'
tRp77
sg14
VCompare Smartphones - Smartphone Deals | Wirefly
p78
sa(dp79
g3
Vwww.consumersearch.com/smartphones
p80
sg5
VWhich are the best smartphones, and which are the best value? Editors do the research to find the best smartphones for every user and budget.
p81
sg7
(g80
S'arc bin doc jar sea sit tar torrent via this on can cost less than or nearly difference lies in their build extras and the best for you or a family member is a balance between what you want or need from a and your but the obvious choices necessarily the best differences can ruin the user this we look at some of the best and to find top choices among flagship devices and budget friendly phones that still perform for kids and seniors are also for and the is the very best you can buy right at least those that can forgive for ditching a memory card slot and removable battery largely second that is well made and runs the latest version of rear and front cameras are among the best found on any quad display is base version of the has of memory built in enough for many typical users and there are options to upgrade to and for all major carriers are options include gold and and up might lose the specs race to some of its but reviewers say that the delivers the most intuitive user experience of any ups the screen size to inches a welcome upgrade from the old and typical small refinements in design and functionality make the the best in the series to agree that the build quality is the display looks the camera captures terrific and that with its tight integration with the massive app everything on this simply works colors are gold and space can be used on most major for enthusiasts is a fabulous for runs a pure vanilla version of is usually first in line for new and is the easiest to work with for those who like to customize their user experience via loadable that alters the interface and adds or changes a nearly universal with radios for all cellular frequencies and all carriers price cut has improved near screen is a pleasure to see and use except when you try to use it and this big phone is a tight fit in some pants by value is well more powerful than most in its price and packed with surprising camera and full display hold their own against even more expensive as do the dual user interface actually adds some useful enhancements to such as flipping the interface around to match the orientation no more fumbling with the phone when time to make a battery but battery life is pretty and you can expand the of memory via grey with metallic the is sold unlocked through and works only with and prepaid carriers that use those cheap or even less if bought through some the second generation is a terrific choice for a a or anyone that wants to get their feet wet with a solid without breaking the obvious corners are cut when it comes to the display the but performance is quite good for everyday tasks even light duty gaming is a speeds are the big in the latest quality is good including scratch resistant on the display and the basic black or white cases can be up by adding optional color bands around the for all major carriers and networks are for any user and any budget odds are good that or someone in your has a latest data from the puts ownership at percent of adult up from percent just four years no that manufacturers have ramped up the assembly lines to churn out lots and lots of onto any of the plethora of forums dedicated to and find over the benefits and foibles of one phone over people can be passionate about their no one is ideal for every situation and user price and more can make or break the user also matters what you need your you want a flagship model for life or a device for making calls and occasionally checking all currently available run one of four operating and the original in many responsible for the current popularity of set the world on fire when introduced in user interface was intuitive and easy to and remains so to this to its operating system is currently on with set for release in the fall of have brought new features and such as the personal without compromising or even changing very much the and familiar the software and hardware designed to work together from the and only with each helps assure seamless the experience has its is a fairly locked down operating system with limited options for and other content come exclusively from you even need to add your own content to your you peek behind the curtain to access files only through their associated the plus the app store is huge and hugely as of the app library hosted million titles according to data provided by announced that it had exceeded billion app downloads in the seven years since the app store you want an a last generation can be bought at retail for around and prices go up from there to for an plus with of phones are offered by a number of as opposed to just for while it might come as a surprise that phones have a bigger share of the market than it and in not even percent of the marketplace goes to the while the many available phones make up according to research conducted by saying that a phone runs is only part of the is an operating and manufacturers are free to develop their own of to offer or remove features to make their devices unique and most take full advantage of that for better or new phones run the latest version of the operating code named though some older and even some new budget run the last generation called new generation of the just called for is under development and is expected to be released for some not phones sometime in late also an active community of enthusiasts that have created their own custom versions of that alter the user interface and allow access to features and functions that the manufacturer or carrier may have changed or is the primary source for and grown in size over the years to the point where it is now slightly larger than per with million as of there are third party app stores where additional content can be include the which hosted as of though many of those are also available via phones are available at a wide variety of price points and performance models can be had for less than is that these lag in display design and durability compared to premium flagship phones like the which can top those basic phones are perfectly fine for everyday use in making reading browsing the taking casual finding your way home via casual gaming and phones continue to struggle to gain a foothold phones make up under percent of the market according to the and venture into hardware has not gone upside is familiarity for laptop and desktop but you can achieve that without a to access applications such as are available for both and of the app store continues to trail its and competitors by a wide with as of you find a phone that runs a few and budget phones with good performance and build quality surface in include the writes no but the offers a solid experience at a budget price point hard to phones are still and the company even introduced a new model this some full models are users largely select these phones for their superior mechanical which is a lot easier to use for creating and other documents than the virtual keyboards found on other say that devices fall short in carrying out other native app library is very just as of while the current operating system runs you get those from the official only from app stores like the the physical keyboard on most such as the new squeezes down the screen size the display is only for the but the consensus is that while fans will be the phone offers few reasons for users to consider pricing the it was common to quote phone prices as the subsidized price at a particular carrier in exchange for agreeing to a contract with stiff early termination penalties and many reviewers still do changes in carrier practices including the discouragement discontinuation of subsidized phones has exposed the true cost of the many subsidized phones are not even an option any if you are a your only option is to buy the phone at full retail or with the full retail spread out over two early announced that will be eliminating subsidized subscribers can also usually only buy their phones at full retail or on a payment offers plans where you can lease instead of buy the phone outright the monthly costs are but a minimum term and the lease payments continue on until you return the phone or pay a lease upgrade programs available from some which forgive some payments if you purchase a new muddy the waters even look into all of these myriad plans and offerings in our reports on cell phone plans and prepaid cell phone for the purposes of this and so that we are comparing apples to apples is it to all prices quoted here are the full retail price of the without a carrier the best find the best editors consider factors such as features the quality of the reliability and look at feedback from top such as and many also look at user reviews posted at top such as and as well as at major result is our selections of the for every and every in for and the discussion every best of editors personally research every product category to recommend the best review sources are heavily but user especially those where durability or usability are a are crucial to helping us finalize our top to most other product review is supported by a combination of commissions on the sale of the products we recommend and ads that are placed on our site by you find something you you can help support us by clicking through and buying the products we editorial process is independent and we don accept product requests for reviews or product or direct of page has been optimized for view this page in original please are advertisements provided through the listings are sorted and maintained by information about these go to may place or recognize a unique on your from this cookie may be used by to help provide advertisers with more targeted advertising more information about privacy including how to opt go to clicking on you will leave web site you will go to is not endorsed by ga remove the margin from first add in a'
tp82
sg9
g10
(g12
S'H\x00\x00\x00\x00\x00\x00\x00'
tRp83
sg14
VSmartphone Reviews - 5 Best Smartphones
p84
sa(dp85
g3
Vhttps://www.cnet.com/topics/phones/buying-guide
p86
sg5
VExcellent news, everybody: Smartphones are so good these days, it's hard to make a truly terrible choice. But whether you plan to hold onto it for years or ...
p87
sg7
(g86
S"or to buy the best phone max errors sent per page text return party a script error timeout for a load timeout function new if else if where try doc dom doc if true details might have this explains what caused its that news may have been overshadowed by a leak about next flagship you need to know about buying a new if queuing for smart home devices our smart apartment our smart house to queuing for you need to know about buying a new phone lot has changed in the what to look for before searching for a new queuing for by to look for when buying a phone helps you decide which phone is the one for you by are so good these hard to make a truly terrible whether you plan to hold onto it for years or switch it when the next hotness comes you still want to make sure getting the right phone for you whether a budget buy or a are our favorite phones right or or or for more out our current picks for best phones phones are all the what you care about it screen camera battery will help narrow down your discount the can still get a great phone that does almost everything that a premium phone can for a fraction of the to hold the phone at a store may love or hate the way it looks and feels in for for deep discounts around major find out your grace period in case you need a quick return or you buy a global make sure it works with your carrier bands you already bought a lot of and with if you still want access to if invested in any want to stay on that side of the a case and glass screen protect your phone from costly and will increase the resale or value for when ready to move how to recycle your phone for most important to or something buying an phone has the better native maps app and assistant by far as or it ties into the same services many people already updates are typically announced in or and often arrive first with official or but this been less consistent or current will get you the most recent including a feature called on the version is but not a phone manufacturers take longer to upgrade and more popular phones are more likely to get the buying an is small enough for but hardly queuing for updates come right on time for almost every seem to develop fewer weird tics over time and they play better with other like usually announces the latest major version in and releases it in in are but run the risk of losing out on newer features in future you wait for anniversary rumors be a doozy or die phone or small you insist on a phone with a small screen look at the or get used to anything from to inches even screens inches and for a minimum screen resolution of resolution is even especially for screens and you plan to use a headset like the higher the the better when the phone is inches from your pixel count quality you don't follow camera a list of sensor brands and make much sense when trying to determine if your photos will be any love the awesome camera for everyday don't always equal higher quality camera might take better photos than a phones with rear cameras only appear on budget phones these middling a phone has two rear there to create an optional depth effect known as a background or to give you a image or helps prevent blur from shaking is especially helpful when shooting indoors or in help with blur caused by a moving phone cameras come with beauty mode and plenty of filters and life and performance phones from the middle price range and up can handle a basic worth of phone gaming and music though some internal tech is more refined than phones even use the same chips as those with nosebleed need to charge most phones once a so plan accordingly stock up on an extra charger for your or your typically get longer life from a battery or and music streaming suck down battery life faster than other does keeping brightness on full processor always than a chips are the most is newer than and and have wireless charging built scanner usually on the power button or home storage on some and higher is as available on the and audio speakers or enhanced audio through the new standard for battery note that this feature is becoming about budget a low price is the most important thing about a guaranteed to make some there are still some great budget phones that give you more for their price than we like the but we're looking forward to off if you can for the next looks promising and is due to update to the questions to ask it has a do adapter example come in the or will you need to buy it have a standard headphone jack or will you need to buy an adapter the phone what will you have to do to fix the phone support it locked to a carrier or can you add a card for any you lose any features either you travel with it internationally by simply swapping the it the same price if you pay in full as you do in should the warranty cover your needs or will you pay for an extended phones you can buy right published at new queuing for out a sampling of the stories find in newsstand millions of refugees are still searching for a safe place to should be part of the is your voice comments queuing for is most advanced stylus yet and is compatible with nine not just it share and make smarter announces mobile deal best tricks and hidden features of the for queuing for you need to know about powered by queuing for of queuing for function if else if if if new new new new in in in in a a a try"
tp88
sg9
g10
(g12
S'\x14\x00\x00\x00\x00\x00\x00\x00'
tRp89
sg14
ViPhone 7, Samsung Galaxy S7 or Google Pixel?: How to buy ...
p90
sa(dp91
g3
Vwww.gartner.com/it-glossary/smartphone
p92
sg5
VA smartphone is a mobile communications device that uses an identifiable open OS. An open OS is supported by third-party applications written by a notable developer ...
p93
sg7
(g92
S'none none none in to search a function return function function function if null else new function if if is a mobile communications device that uses an identifiable open open is supported by applications written by a notable developer applications can be installed and and they can be created for the device and application programming interfaces developers must be able to access through a discrete layer such as must support a multitasking environment and user interface that can handle multiple applications it can display while playing for top trends will drive the future of the intelligent digital architecture and technology innovation leaders must prepare for the impacts of these disruptive trends on businesses and and determine how they can provide competitive for and the of business innovation creates disruptive effects that have a impact on people and secondary ripple effects will often prove to be more disruptive than the original strategists must actively identify secondary effects when planning the of to leaders often fail to meaningfully communicate the value of to business story and supporting metrics are too often leaders must learn how to craft and deliver the of story to business is time to change the for a competitive landscape for providers offering services in support of building and managing of solutions has rapidly changed the past practice offering managers need to understand the complexities and subtleties of todays services this gain an understanding of todays decision process through the eyes of a buyer and identify areas within your go to market strategy that may need left right a us now or us what and leaders already enter a valid address you for choosing to stay informed about its if else new'
tp94
sg9
g10
(g12
S']\x00\x00\x00\x00\x00\x00\x00'
tRp95
sg14
VSmartphone - Gartner IT Glossary
p96
sa(dp97
g3
Vwww.computerhope.com/jargon/s/smartphone.htm
p98
sg5
VSmartphone. A smartphone is a cell phone that allows you to do more than just make phone calls and send text messages. Smartphones can browse the Internet and run ...
p99
sg7
(g98
S'is to are is a cell phone that allows you to do more than just make phone calls and send text can browse the and run basic software programs like a use a touch screen to allow users to interact with are thousands of including and programs that can all run on the picture is an example of the one of the most popular available else can a are loaded with feature and hard to imagine them as just a is a listing of the most popular features of a and receive phone calls text and store pictures and the and send and receive capability for location and and play audio and time and date and other time functions such as alarm and weather and temperature dictation and take notes assistant using or utilities such as a and calculator with a you can download and install other and games that can do an almost endless amount of a have an operating to a desktop or laptop a has an operating system on like or four most common are by by by and by was the first first unofficial was developed by in was a prototype with including news and stock prototype resulted in an improved version being released to the market in called the device was the first official with capabilities to send and receive and included like an address and a pages to find information about my this page added pages all recent updates links to pages us'
tp100
sg9
g10
(g12
S'L\x00\x00\x00\x00\x00\x00\x00'
tRp101
sg14
VWhat is smartphone? - Computer Hope
p102
sa(dp103
g3
Vhttps://www.techopedia.com/definition/2977
p104
sg5
VSmartphone Definition - A smartphone is a mobile phone with highly advanced features. A typical smartphone has a high-resolution touch screen display,...
p105
sg7
(g104
S'is a from po the ad keywords variable to be used in child pages the welcome ad if delay the subscription only when the interstitial ad is not prompted to the user timeout of ensures the check for element is done correctly if if if snippet included else function return function return for function ad fetching true of the the least significant bit is the bit which is farthest to the right and holds the least value in a binary binary numbers are largely used in computing and other related the least significant bit holds especially when it comes to transmission of binary more of the at the to for in in to the on in the the and the to for in the on in in by and the for to in and of and in in to of and does is a mobile phone with highly advanced typical has a touch screen browsing and the ability to accept sophisticated majority of these devices run on any of these popular mobile operating and the explains is expected to have a more powerful more storage more greater options and larger screen than a regular cell now run on processors with high processing speeds coupled with low power they ll allow you to play browse the update your and text much longer than you used addition to the features mentioned are also equipped with innovative sensors like accelerometers or even are responsible for displaying screens in portrait and landscape while gyroscopes make it possible for games to support earliest touch screen used resistive which required the use of slender pointing objects known as styli stylus in singular of the later models like the and most employ capacitive which feature finger the on and the does of your questions answered by our everyday tasks and them makes it easy to quickly identify the types of network traffic by flow data capture and interface monitoring for bandwidth usage in real close and the with us on us on on up for thousands of others with our weekly newsletter of the benefits and limitations of the generations of infrastructure converged and and discover how the and of today aspire to achieve a to enhance business agility and reduce operational white paper is for leaders of or teams who are creating or executing an is a free monitoring and reporting tool for and delivers an autonomic platform where virtual and cloud environments in to assure application for of a new in your every is mandatory first term will be in your mailbox if function if else function try catch'
tp106
sg9
g10
(g12
S'>\x00\x00\x00\x00\x00\x00\x00'
tRp107
sg14
VWhat is a Smartphone? - Definition from Techopedia
p108
sa(dp109
g3
Vhttps://www.verizonwireless.com
p110
sg5
VThe new Verizon Plan. Get more data and more control on America's best network. Prepaid Plans. No annual contract. Monthly plans for your smartphone or connected device.
p111
sg7
(g110
S'is unavailable to arrow keys to access and this may require a mode change function is temporarily unavailable the explore some of our products and a selection of all devices and plans are available for purchase at this alternate a'
tp112
sg9
g10
(g12
S'2\x00\x00\x00\x00\x00\x00\x00'
tRp113
sg14
VCell Phones, Smartphones & the Largest 4G LTE Network ...
p114
sa(dp115
g3
g68
sg5
g69
sg7
(g68
S"modifications to the theme and and function loc ga visible block visible left center block none visible block none block block visible block visible none block block solid transparent solid transparent solid transparent solid solid transparent solid transparent transparent solid solid solid solid width width the white white undefined blackberry blazer elaine fennec iris kindle opera phone plucker pocket windows a wa ca ny ll cell craw ll os wa gene a go idea iris jigs lynx de do on ma ms ny mc it whit your you for supporting our site and know we appreciate your you for becoming our you for supporting our site and know we appreciate your you for becoming our for need to pay our bills to keep the site the if you change your are committed to protecting your re committed to hosting safe ads and respecting your do not share your rest can feel safe if you continue supporting ads are creeping me are committed to delivering a fast ads will not slow down the you are welcome to try the light ads feel advertising slows down the only support ads will not block not initiate sound and defiantly no we promise a advertising don't like intrusive comes monitor each ad and filter out any and inappropriate we don take safety for can run and get ads what you re here our content always and will be donating for an experience helps us keep the lights hate get ads what you re here our content always and will be donating for an experience helps us keep the lights me wish to use ad get ads for help us improve our user please share why you wish to block ads on our to our undefined new null undefined null new new new new new new new new undefined null in in new in in undefined new new undefined null new undefined null make a state of it sucks takes in mini investigating after customer gets named goes for jugular with cheaper unlimited data plan for limited on will feature software navigation buttons and launch on will feature software navigation buttons and launch on mini makes waves in gets discounted in on now caught on camera randomly exploding in on your with state of it sucks investigating after customer gets named are we still using instant at tipped to play it safe with removable battery dropped in favor of water resistance for the on the table screen will remind you it from the real deal state of it takes in investigating after customer gets named goes for jugular with cheaper unlimited data plan for limited makes web page reloads significantly especially on offers whopping savings on kit with camera makes web page reloads significantly especially on are we still using instant at on expected to include as soon as this lets you save on select models with how to build and save over with benchmarked with same old make a and this veteran and headset maker moves to it bridge and fitness takes into it bridge and fitness posts make a say might be releasing its own many cooks in the or time to stand out from the is pm state of it battery optimization claims our own in his him out in this video and let us know if you am takes in smaller of the phones from still has powerful sound and a more stock available for pm this your tech armory without spending a dime by entering this giveaway for a and a enjoy total mobile computing freedom with the portable and the incredible power of flagship the brand new addition to the series is already collecting rave reviews from the likes of and so you can rest assured getting a couple of pieces of and for investigating after customer gets named one customer could call support team a it would probably be the lot of calling just pm goes for jugular with cheaper unlimited data plan for limited says you don't need unlimited gives new customers everything they want for a measly a am makes web page reloads significantly especially on one to rest on its continues to improve the performance of the widely beloved web mainly for mobile am offers whopping savings on kit with camera of paying a grand total of for the unlocked modular phone and camera you can get the bundle at am are we still using instant at we really need a instant our friends have to install them out here if a better am washable is now also resistant to foaming body has a washable slated for a launch in with both hand and body soap resistance in am scores record million sales in but and brands continues to comfortably dominate shipments in despite the rapid growth of several and minor am tipped to play it safe with removable battery dropped in favor of water know that battery you liked so much about last year's and probably have to make do without one on the am for the on the table supposedly has plenty on its plate in order to fix up flaws and improve on its first impressions made with its first am and rumors are sprouting up ll try to collect the newest might be stepping up its game while gains a new for there will not be an not any time plus we answer viewer so make sure you re charged and ready for the the live video broadcast from on or check out the audio version right folks watching you can comment pm screen will remind you it from a will say so right from the top of the once you turn it this really a pm on expected to include as soon as this on is already comprises and has just been an odd fruit pm will feature software navigation buttons and launch is reporting that the phone will come in two sizes with screens and shake up the hardware pm says it still working with for semiconductor company is addressing multiple allegations made by the and regulators in its earnings pm is officially coming soon to as teased on the cat is now out of the as on the and reveals is on its sure way to pm boosts data allotment on select free phones also on offer for subsidiary challenges prepaid rival with more more as well as many free phones for switchers to choose am earnings but outlook bright under new and a drip of something to celebrate in and incoming chairman am for is delayed a little in still coming this to failed and is no longer scheduled to roll out to the this am coming to the could be just what got some interesting news last week from indicate that the program might be hitting those of you who don a or series of it is basically an instruction manual on what components could be used to deliver a pure those three words together is bound to set the salivary glands into is an geek it one we thought died with the called by some am lets you save on select models with getting a little long in the but at off with an extended feels like a solid am make a state of it are we still using instant at coming to the could be just what with and and of the off the and some early teasers dissatisfied that his speaker issue ends in of for on for on a phone a pipe state of it it bridge and fitness finally gets an update app review in rights reserved and and loader tag else else verify that you are not a loader tag else else loader tag else else"
tp116
sg9
g10
(g12
S'+\x00\x00\x00\x00\x00\x00\x00'
tRp117
sg14
g72
sa(dp118
g3
Vhttps://www.android.com/phones
p119
sg5
VSmart, useful, and always ready for you. With Google's intelligence built in, Android brings you useful insights and assistance to help you do the things you love.
p120
sg7
(g119
S'phones new privacy and voice camera and battery customization app settings new to content a the you re looking for a waterproof the longest battery life or a there an phone for by useful and always ready for you intelligence built brings you useful insights and assistance to help you do the things that you anywhere on can anticipate your needs in the a simple get an instant shortcut to just the right answers at exactly the right say the words your voice to get things to ask a send a set a get directions or whatever you need to that that automatically your photos by faces and things that appear in them no tagging matter the is uniquely yours your phone from the home right down to the look of the icons and the size of the get more than get a world of options at your a selection of applications that you can use to make your auto console and television the previous and next as well as the keyboard to change the displayed popular featured all other devices the auto consoles and televisions that you can use to your digital the previous and next as well as the keyboard to change the displayed by all phones for all wear all tablets all all auto developer resources for a features and devices may not be available in all these carousel the previous and next as well as the keyboard to change the displayed'
tp121
sg9
g10
(g12
S'0\x00\x00\x00\x00\x00\x00\x00'
tRp122
sg14
VAndroid \u2013 Android Phones
p123
sa(dp124
g3
g68
sg5
g69
sg7
(g68
S"modifications to the theme and and function loc ga visible block visible left center block none visible block none block block visible block visible none block block solid transparent solid transparent solid transparent solid solid transparent solid transparent transparent solid solid solid solid width width the white white undefined blackberry blazer elaine fennec iris kindle opera phone plucker pocket windows a wa ca ny ll cell craw ll os wa gene a go idea iris jigs lynx de do on ma ms ny mc it whit your you for supporting our site and know we appreciate your you for becoming our you for supporting our site and know we appreciate your you for becoming our for need to pay our bills to keep the site the if you change your are committed to protecting your re committed to hosting safe ads and respecting your do not share your rest can feel safe if you continue supporting ads are creeping me are committed to delivering a fast ads will not slow down the you are welcome to try the light ads feel advertising slows down the only support ads will not block not initiate sound and defiantly no we promise a advertising don't like intrusive comes monitor each ad and filter out any and inappropriate we don take safety for can run and get ads what you re here our content always and will be donating for an experience helps us keep the lights hate get ads what you re here our content always and will be donating for an experience helps us keep the lights me wish to use ad get ads for help us improve our user please share why you wish to block ads on our to our undefined new null undefined null new new new new new new new new undefined null in in new in in undefined new new undefined null new undefined null make a state of it sucks takes in mini investigating after customer gets named goes for jugular with cheaper unlimited data plan for limited on will feature software navigation buttons and launch on will feature software navigation buttons and launch on mini makes waves in gets discounted in on now caught on camera randomly exploding in on your with state of it sucks investigating after customer gets named are we still using instant at tipped to play it safe with removable battery dropped in favor of water resistance for the on the table screen will remind you it from the real deal state of it takes in investigating after customer gets named goes for jugular with cheaper unlimited data plan for limited makes web page reloads significantly especially on offers whopping savings on kit with camera makes web page reloads significantly especially on are we still using instant at on expected to include as soon as this lets you save on select models with how to build and save over with benchmarked with same old make a and this veteran and headset maker moves to it bridge and fitness takes into it bridge and fitness posts make a say might be releasing its own many cooks in the or time to stand out from the is pm state of it battery optimization claims our own in his him out in this video and let us know if you am takes in smaller of the phones from still has powerful sound and a more stock available for pm this your tech armory without spending a dime by entering this giveaway for a and a enjoy total mobile computing freedom with the portable and the incredible power of flagship the brand new addition to the series is already collecting rave reviews from the likes of and so you can rest assured getting a couple of pieces of and for investigating after customer gets named one customer could call support team a it would probably be the lot of calling just pm goes for jugular with cheaper unlimited data plan for limited says you don't need unlimited gives new customers everything they want for a measly a am makes web page reloads significantly especially on one to rest on its continues to improve the performance of the widely beloved web mainly for mobile am offers whopping savings on kit with camera of paying a grand total of for the unlocked modular phone and camera you can get the bundle at am are we still using instant at we really need a instant our friends have to install them out here if a better am washable is now also resistant to foaming body has a washable slated for a launch in with both hand and body soap resistance in am scores record million sales in but and brands continues to comfortably dominate shipments in despite the rapid growth of several and minor am tipped to play it safe with removable battery dropped in favor of water know that battery you liked so much about last year's and probably have to make do without one on the am for the on the table supposedly has plenty on its plate in order to fix up flaws and improve on its first impressions made with its first am and rumors are sprouting up ll try to collect the newest might be stepping up its game while gains a new for there will not be an not any time plus we answer viewer so make sure you re charged and ready for the the live video broadcast from on or check out the audio version right folks watching you can comment pm screen will remind you it from a will say so right from the top of the once you turn it this really a pm on expected to include as soon as this on is already comprises and has just been an odd fruit pm will feature software navigation buttons and launch is reporting that the phone will come in two sizes with screens and shake up the hardware pm says it still working with for semiconductor company is addressing multiple allegations made by the and regulators in its earnings pm is officially coming soon to as teased on the cat is now out of the as on the and reveals is on its sure way to pm boosts data allotment on select free phones also on offer for subsidiary challenges prepaid rival with more more as well as many free phones for switchers to choose am earnings but outlook bright under new and a drip of something to celebrate in and incoming chairman am for is delayed a little in still coming this to failed and is no longer scheduled to roll out to the this am coming to the could be just what got some interesting news last week from indicate that the program might be hitting those of you who don a or series of it is basically an instruction manual on what components could be used to deliver a pure those three words together is bound to set the salivary glands into is an geek it one we thought died with the called by some am lets you save on select models with getting a little long in the but at off with an extended feels like a solid am make a state of it are we still using instant at coming to the could be just what with and and of the off the and some early teasers dissatisfied that his speaker issue ends in of for on for on a phone a pipe state of it it bridge and fitness finally gets an update app review in rights reserved and and loader tag else else verify that you are not a loader tag else else loader tag else else"
tp125
sg9
g10
(g12
S'+\x00\x00\x00\x00\x00\x00\x00'
tRp126
sg14
g72
sa(dp127
g3
Vhttps://oneplus.net
p128
sg5
VOnePlus creates beautifully designed products with premium build quality & brings the best technology to users around the world. No tradeoffs, we #NeverSettle.
p129
sg7
(g128
S'new in in up password with with out your country or region may have different prices and availability based on br a are visiting a store that is different from your current location visiting store to store account orders addresses out table both auto transparent transparent relative screen and screen and the best of technology to our users much power in half an hour with the as many community events as possible now with your friends and family screen and screen and screen and screen and screen and screen and screen and screen and screen and screen and screen and screen and screen and screen and screen and now and on here figure contain figure auto figure figure figure figure figure figure a underline solid button none screen and is the fastest charging phone in the world right more makes its best phone even more was rated by and named their of more center auto screen and screen and auto screen and the spirit with friends and family this function if else return tips new function recipient name has exceed the character sender name has exceed the character recipient has exceed the character is in the send queue and will go out unexpected error occurred processing the developers will be and now to if now new new start new end new start function clone return new a'
tp130
sg9
g10
(g12
S'.\x00\x00\x00\x00\x00\x00\x00'
tRp131
sg14
VOnePlus - Official Site
p132
sa(dp133
g3
Vwww.digitaltrends.com/cell-phone-reviews
p134
sg5
VPhone Reviews Share. The best smartphone you can buy The best phablet you can buy The best cheap smartphone you can buy Editors' Choice We review hundreds ...
p135
sg7
(g134
S'check query for if undefined if else if else if else if else if if try for new else try for old new if gads node node options and mobile phone reviews on the most popular cell reviews of the most popular cell and mobile phone reviews on the most popular cell get function key key group group if if return return set function key key group group data data if if del function key key group group if if function not track views for sticky related video if item req if if request else attachment id to new if if if if if if if if if if new with of of and text classes if date if thumb else thumb title if date date if score score score items items items items items this visit courtesy to is this is this noticed you are using an understand that you may have many reasons for blocking our the same we need to keep the lights on so we can keep bringing you great promotional consideration by allows us to avoid tactics that we totally comfortable like blocking our are some other ways you can disabling your ad the our our content on your to see less your visit to without further best you can buy best you can buy best cheap you can buy review hundreds of products in a wide range of categories each the best of the best in review has replaced the with the complete with the new processor costs a little more than so we found out if it worth the review review review review reviews out of to to recording display and moisture resistant storage camera support keyboard system size in in in in in in in in palm camera performer display and design price is frustrating could be better carrier support compact body camera and improved software processor battery release date yet design body sensor is fast price point at mode improves photos rear cameras battery life the latest version of carrier support metal design specs display with vibrant colors performance disappoints much updates unclear expensive demure style cam and related software rear camera of date software software camera display has tracking problems battery life design to use software design performance display camera speed from chip cameras metal body experience with regular updates fast charging battery software issues need fixing product reliable technology and tools to navigate the digital rights id id id title title title thumb thumb thumb id if title if thumb title title title author author author date date date plural if if plural title if author if date label label label text text text label text we we our review scores running best you can best you can best cheap you can series to the under with the best laptop you can buy is still take computing to the streets without breaking the only one review on to your are the fastest cars in the most expensive cars in the world make look like first perfect rides for new for and favorite games that you can play right best games you can buy right underdogs of best games on display this buying everything to know before you buy a cheap tablets best you can pavement to a soundtrack with the best running outrageous headphones that will blow your and your the most out of photography with the best your most epic thrills and spills with the best action cameras that make your look best desktop you can best monitor you can sound surround sound formats to buy speakers like a guide to home speakers under refrigerator you need to know about buying a washer and best refrigerator you can away that sponge and let one of our favorite dishwashers do the with best you can best smart jewelry you can running of blending million processors are recalled for broken new on and leaving in we know so tips and tricks will help you make the most of your is an essential part of a balanced you need to know about out of the best cases and covers for your shiny new is proof your mouse is holding you is one console you can take everywhere what you need the best laptop you can buy is still is an essential part of a balanced competitors are a bet on the power of new on and leaving in we know so is an essential part of a balanced is now and even its creators know coming is one console you can take everywhere what you need will use competition to raise health care new and different gaming worlds with of the best the inside of your car goes from clay to leather and stainless will put the on steroids to steal the will against inconsiderate pits its race truck against race find its had to look back to its digital photography reinvented itself to become better than off everyone on your gift list with gadgets under on a all the best tech you can snag for or blending million processors are recalled for broken holographic virtual girl lives inside answer to the off everyone on your gift list with gadgets under you need to know about fight trainer explains how he made brawls so new on and leaving in we know so off everyone on your gift list with gadgets under legends have mastered format outpaces digital downloads in songs you need to stream this and absent for sends acceptance off everyone on your gift list with gadgets under control of your with these essential tips and future of tracking will make step counters look like athletes redesigned the gimbal to be do you build a anyone can it holographic virtual girl lives inside answer to the off everyone on your gift list with gadgets under you need to know about off everyone on your gift list with gadgets under snapping a quick could help identify genetic the environment on your way to work with an future of tracking will make step counters look like of off everyone on your gift list with gadgets under the environment on your way to work with an future of tracking will make step counters look like by are reasons you need to know about make its first real drone rewards program nets you up to cash back at participating the inside of your car goes from clay to leather and stainless cars in pot in a a watch powered by body make makes them drive with meets hits easier with and services for the lazy engineering marvels that tamed terrain to cut travel laptop bags for travelers who want to get through security in and our favorite sites for finding the cheapest plane the inside of your car goes from clay to leather and stainless ethanol in your gas a revisited the question with an is changing the face of the automobile make makes them drive legends have mastered the bassist picks up the in hold back the sea when it comes to says new battles your with perfect song smart universal the problem with cars in pot in a a watch powered by body to charities with hack a get a pizza delivered by top clairvoyant and a potential tech you buy glasses and a bed that makes tech you buy bike toilet and tech you buy invisible and tech you buy for your camera and on rocking off the grid with a solar to easily build a an from pencil lead and a your meat with this hot dog with fake news fallout and what to look for on with lets you watch plans to map with with unveils convenience may drop the headphone with meets hits of to know if a place is wheelchair now tells bees are designed to pollinate flowers when real bees no longer will build a fleet of in next do we end the advertising arms thinking like best is the one you already no technology forces happens when anyone can about to find humans make computers the father of the plans to reclaim it from and pop zombie fixation is really the should learn from this with these powerful easy projects anyone can try with a your home faster and more reliable with these simple to irreversibly obliterate files from a hard of to know if a place is wheelchair now tells bees are designed to pollinate flowers when real bees no longer will build a fleet of in next vent val function protocol protocol if'
tp136
sg9
g10
(g12
S'c\x00\x00\x00\x00\x00\x00\x00'
tRp137
sg14
VPhone Reviews | Digital Trends
p138
sa(dp139
g3
g104
sg5
g105
sg7
(g104
S'is a from po the ad keywords variable to be used in child pages the welcome ad if delay the subscription only when the interstitial ad is not prompted to the user timeout of ensures the check for element is done correctly if if if snippet included else function return function return for function ad fetching true of the the least significant bit is the bit which is farthest to the right and holds the least value in a binary binary numbers are largely used in computing and other related the least significant bit holds especially when it comes to transmission of binary more of the at the to for in in to the on in the the and the to for in the on in in by and the for to in and of and in in to of and does is a mobile phone with highly advanced typical has a touch screen browsing and the ability to accept sophisticated majority of these devices run on any of these popular mobile operating and the explains is expected to have a more powerful more storage more greater options and larger screen than a regular cell now run on processors with high processing speeds coupled with low power they ll allow you to play browse the update your and text much longer than you used addition to the features mentioned are also equipped with innovative sensors like accelerometers or even are responsible for displaying screens in portrait and landscape while gyroscopes make it possible for games to support earliest touch screen used resistive which required the use of slender pointing objects known as styli stylus in singular of the later models like the and most employ capacitive which feature finger the on and the does of your questions answered by our everyday tasks and them makes it easy to quickly identify the types of network traffic by flow data capture and interface monitoring for bandwidth usage in real close and the with us on us on on up for thousands of others with our weekly newsletter of the benefits and limitations of the generations of infrastructure converged and and discover how the and of today aspire to achieve a to enhance business agility and reduce operational white paper is for leaders of or teams who are creating or executing an is a free monitoring and reporting tool for and delivers an autonomic platform where virtual and cloud environments in to assure application for of a new in your every is mandatory first term will be in your mailbox if function if else function try catch'
tp140
sg9
g10
(g12
S'>\x00\x00\x00\x00\x00\x00\x00'
tRp141
sg14
g108
sa(dp142
g3
Vhttps://www.merriam-webster.com/dictionary/smartphone
p143
sg5
VDefine smartphone: a mobile telephone that can be used to send and receive e-mail, connect to the Internet, take photographs, etc.
p144
sg7
(g143
S'find module of by some libs are better off to be left out of compiled bundle ad libraries slot initializing slots by default we use a is only being used if provided if else this enables audio playback everywhere subscribe forms if present and starting tracking this is from needs to be is needed on all pages except for if find module void load error received for event from response host generation only going to comment it out for now in case they change their play noun smart phone function your grammar of a cell phone that includes additional software functions or an of for play noun smart phone of for a mobile telephone that can be used to send and receive connect to the take for noun smart phone of for a cell phone that includes additional functions or an about of for speakers and made you want to look up tell us where you read or heard it the if macerate play to soften by steeping or soaking of the daily vet to evaluate for possible approval or acceptance holocaust is demonstrator person who engages in a public chimera pronounced claque group hired to smart card smart cookie smart drug smarted up smarten smartened smartening smarten up smart grass smartie smarties smartly smart money smart mouthed smart move smartness smart off smarts smart set smarty smarty pants smash smashable signal smash down smashed smasher smash fixer smash hand smash in smashing smashingly smashing machine a break and test your is a synonym of authentic artificial political dolorous your visual vocabulary with our and learn some interesting things along the at and but one implies confidence for seemed like overkill as a with lost history of and there a the it or we care of the the we chose is in fact a real word that mean you should use two up with of the and the quiz that and all fun and games until someone beats your high the quiz your visual vocabulary with our the quiz sharpen your the game internal tracking a new word every to your twitter the a of the of the the the the from and from from for from of the from it or adonis adonis find module host generation mode is adonis client to server and port to connect server response void to process chunked complete state connection state gathering state offer data data to matching matching data to turn after offer generated which should trigger request after added is in in private the new is deprecated in in in new and are'
tp145
sg9
g10
(g12
S'@\x00\x00\x00\x00\x00\x00\x00'
tRp146
sg14
VSmartphone | Definition of Smartphone by Merriam-Webster
p147
sa(dp148
g3
Vwww8.hp.com/us/en/ads/mobility/overview.html
p149
sg5
VDiscover mobile printing from HP, with easy wireless printing from your iPad, iPhone, Android, or other device, you'll find secure mobile printing wherever you go.
p150
sg7
(g149
S'from a or flag to enable or disable functionality different true to disable functionality function try else else ref to to tablets home office only format digital presses accessories solutions medium business store store sector purchasing troubleshooting drivers services for home services for work warranties home office only format digital presses medium business store store sector purchasing troubleshooting drivers services for home services for work warranties search box tablets home office only format digital presses accessories solutions medium business store store sector purchasing troubleshooting drivers services for home services for work warranties home office only format digital presses medium business store store sector purchasing troubleshooting drivers services for home services for work warranties of content network printing direct printing printing printers print from your or tablet in just a few simple wherever you printers make mobile printing your device connection of printer pick your device and show you how touch other based already set up mobile printing and need troubleshooting and click here are you able to connect to the same network as your these steps started you within view of your inspired with projects you can and share photo projects you can create personalized photo business brochures that make an party and more right from your own home creating paper give you free photo paper and envelopes when you purchase select or at participating retailers everything you need to and share your photo business and now your perfect printer some of our favorite printers that make mobile printing a all wireless printers home business photo printing and more from your mobile printing tasks and scan on the go with the free mobile photos at home for pennies with up to on and never run or copy quickly and easily with the display simply touch and now creative and text at high for a great value from your and photos from your mobile device without switching using the separate photo paper now easiest way to print from your or tablet with or without a router or local wireless and print photos right from the multiple pages quickly with the automatic document feeder and automatic now for productivity with smart features and mobile printing to keep your business moving at or print and more from a variety of and up to on ink with the most affordable way to run out of now for businesses who need affordable color and versatile all in a print and more from a variety of and walk up and print with just a touch of your mobile device to the for sided printing and quick two sided scanning in one pass via the automatic document now for businesses who need improved mobile and manageability all in a print and more from a variety of and walk up and print with just a touch of your mobile device to the restore and help avoid additional expenses with now more from mobile printing for printers you can easily print and scan to your printer or from your or tablet via wireless printing or print remotely by files directly to more supplies to and powerful capabilities app works with your mobile device to help setup your enable print and scan from your remotely monitor and manage your check scan to cloud based storage services and more or get the app right your business forward comprehensive suite of secure mobile printing solutions are specifically designed to help businesses take a approach to boosting productivity in and out of the more retail prices may printing requires mobile device and printer to be on the same network or have a direct wireless performance is dependent on physical environment and distance from access operations are compatible with operations printing requires an connection to an or software and account registration may also be varies by and and may require a see to most printers targeted to office as of based on market share as reported by with operating and operating device and printer must be connected to the same network to access approximate cartridge devices must have app open to receive availability and participation may vary by claim is based on plan price for months using all pages in plan without purchase of additional pages compared to the cost per page of the majority of color printers market share reported by comparisons for supplies are based on estimated street price and page yield as reported by gap intelligence and savings may vary depending on number of pages actually printed per month and content of pages on plan connection to an eligible valid and delivery service in your geographic in plan annual claim is based on plan price for months using all pages in plan without purchase of additional pages compared to the cost per page of the majority of color printers market share reported by comparisons for standard capacity supplies are based on estimated street price and page yield as reported by and savings may vary depending on number of pages actually printed per month and content of pages connection to valid and delivery service in your geographic a compatible mobile a list of compatible mobile see first set of test see only in is available at no charge and requires that the printer be connected to the with web services more see printing requires mobile device and printer to be on the same network access points bridge wireless to wired or have a direct wireless performance is dependent on physical environment and distance from access operations are compatible with operations printing requires an connection to an broadband use requires separately purchased service contract for mobile with service provider for coverage and availability in your for more the and touch are trademarks of registered in the and other is a service mark of is a trademark of the steps below to determine if you can connect to the same wireless network as your printer out the name of the network your printer is on the front panel display of your select the wireless button to show the name of the that the printer is connected printers without a display print the your mobile device to the same network as your printer your mobile go to your find and connect to the same network and you are ready to wireless network printing to connect to the your printer is not network connected or you cannot access the you may still be able to connect directly to your printer via wireless direct with your mobile to see if your printer is supported more out the for mobile printing on devices of content us to buy to an a sector purchasing your commercial support service repair certification connected connected up for news offers up for news recycling map ad choices of warranty statement conditions of sales service is is or to arrow keys to select a search of not find what you were looking for more'
tp151
sg9
g10
(g12
S'\x91\x00\x00\x00\x00\x00\x00\x00'
tRp152
sg14
VHP Mobile Printing from a Smartphone or Tablet | HP ...
p153
sa(dp154
g3
Vhttps://www.motorola.com/us/products/moto-x-pure-edition
p155
sg5
VThe new unlocked Moto X Pure Edition is as amazing as it looks, with water-repellent coating and a 21 MP camera. Build your no-contract Moto X in Moto Maker.
p156
sg7
(g155
S"screen and screen and and screen and and screen and and screen and screen and and screen and and screen and and screen and screen and and screen and and screen and and screen and a valid is necessary to check this you for signing up to receive updates about specials and news from make sure is on your approved to main content phones phones newest phones carrier compatibility your phone about about shells offers discount deals love for your love with an amazing phone all work your own the offers sale on offers discount sweats better designed for your most grueling workouts software and upgrade schedule software and favorite for updates forums other products updates warranty forums resources order status support profile stuff us phones phones newest phones carrier compatibility your phone about about all work your own compatible phones the offers discount software and upgrade schedule software and for updates forums support forums resources updates warranty have just added items in quantity twitter spectacular any light local retailers for or explore the revolutionary new of phones with the unlimited possibilities of spectacular any light works on all major display and stereo charging more of what you love with freedom of what you less of what you don't more entertainment a beautiful display and stereo sound more camera shots and spectacular in any light more water protection more charging battery always ready when you are more your own phone in more enhancements that make life easy more entertainment a display and stereo camera images in any video capture clear video in amazing battery powered up for a and then charging up to hours of extra battery life in just for all major like and carriers and keep your swap the difference see how stacks up against the click full specifications including an up to with and support to to for up to hours of use from minutes charging repellent is unlocked and confirmed to work on is also compatible with most carriers but please contact your service provider for aperture loop processing flash with dual to capture digital zoom mode mode to focus exposure video video video and aperture lens pixel for better low light mode video headset jack version facing speakers with with metal frame and soft grip back with metal frame and back with metal frame and soft grip back from different and availability vary by from different and availability vary by is the best phone of probably the best value find phone that could make me love stay in touch up to be the first to learn about specials and checking this agree to up up phones phones shells monitors headsets monitors office phones gateways monitors training charging headphones products support us resources team updates and the are registered trademarks of mobile phones are designed and manufactured by a wholly owned subsidiary of and other marks are trademarks of robot is reproduced or modified from work created and shared by and used according to terms described in the function cart if cart function sales and promotions subject to product specials and including may not be available for all if valid from at through at applies to purchases of and is subject to change at any to product purchase are ineligible for at checkout to receive a credit decision through and limitations read the terms and conditions for details that include how to make a cancel and list of coverage not available for extra columns from the and menus function technology creates a water repellent barrier to help protect against moderate exposure to water such as accidental splashes or light designed to be submersed in or exposed to pressurized or other coverage varies by must be substantially charging rate slows as charging sold separately in some on average charging rate in the first compared other premium with standard connectors using their rapid charging as of battery life claims are approximate and based on a standard mixed use mixed use profile is based on devices on major networks with excellent coverage and includes both usage and standby settings are applied to the mixed use profile to project battery battery performance will vary and depends on many factors including signal network age of operating features device and and other application usage available capacity of user storage and internal memory is less because the operating software and other functions utilize part of this available capacity may change when you upgrade the to is the trusted industry standard for independent image quality measurements and ratings of mobile device results are available on and in the other than scores is provided independently by"
tp157
sg9
g10
(g12
S'\x8d\x00\x00\x00\x00\x00\x00\x00'
tRp158
sg14
VMoto X Pure Edition (2015) - Unlocked Smartphone - Motorola
p159
sa(dp160
g3
Vwww3.lenovo.com/in/en/smartphones/c/smartphones?menu-id=Smartphones
p161
sg5
VEnhance your life with Lenovo Smartphones, featuring multi-core processors, access to the latest Android apps and PDA capabilities. Get to know our smartphones in India.
p162
sg7
(g161
S'with for off on a new to offer gaming accessories worth for just your favorite at your favorite order us help decide what system is right for you up to date with the latest drivers and software order order status or talk with an agent up guides and instructions and download information for your product and support for repair and diagnostics technical a technical support agent for help with your device if else if else function search add by for new request from begin search search add by for new request from end return modified by for reference end by specs another item compare items all function by for start by for end and are you want the best camera experience or the longest has a that will enhance your feature powerful access to the latest through and peerless display with long battery and powerful processing will keep you connected on the road and in the featuring the latest and camera designed for maximum the features a and guarantees power and reliable the exciting world of and do more for less with comprehensive feature plus functionality as new gives you all of the fun of a tablet with the portability of a in a thin stylish aluminum yourself in multimedia with a brilliant screen powerful share and play with precision engineered featuring the most powerful displays and innovative camera a a solid solid solid screen and solid solid screen and solid solid or screen and solid solid screen and solid solid or screen and solid solid on on on on has won more than international awards for prices mentioned are exclusive of all taxes specifications and availability may change without is not responsible for photographic or typographic and the logo are trademarks of and the logo are trademarks of and are trademarks of in the other product or service names may be trademarks or service marks of prices may does not set reseller key information provided by that may apply to your system including details on and potential makes no representation or warranty regarding products or is only applicable in countries and makes no representation or warranty regarding third party products or rights of of function you sure to at are going to open an external link and will leave you sure to are going to open an external link and will leave you sure to to are going to open an external link and will leave you sure to a on are going to open an external link and will leave you sure to tiny are going to open an external link and will leave you sure to rights this of privacy certification by for length is function return event timeout add by for begin add by for end'
tp163
sg9
g10
(g12
S'l\x00\x00\x00\x00\x00\x00\x00'
tRp164
sg14
VLenovo Smartphones: Stylish Mobiles PDAs with Android ...
p165
sa(dp166
g3
Vhttps://www.fitbit.com/devices
p167
sg5
VSee which Fitbit tracker and app features are supported on your iOS, Android or Windows tablet or smartphone.
p168
sg7
(g167
S'new are list of domains tracking by if continuing to browse this you consent to the use of sure which product is right for cart is currently shop in or or or or or true true true true true true true true true true true true true true true true true true true true true true true true true true true true true true true true true true true true true true true true true true true true true true true true true true true true true true true true true true true true or or true true compatible with or or or compatible with true compatible with true or or true true true true or true true true true true true or or or true true true true true true or true true true true true true true true true true true true or or or or or or or or or or or or or or or true true true true true true true true true true true or or true or true true or or or or true true true true true true true true true true true true true true true true true true true true true true true or or or or or or or or or or or cellular or cellular or cellular or cellular or cellular or cellular or cellular or rear facing or or cellular or cellular or cellular or compatible with and true compatible with and true compatible with and true compatible with and true compatible with and true compatible with and true compatible with and true true compatible with and true compatible with and true compatible with and true compatible with and true true true true compatible with and true compatible with and true compatible with and true compatible with and true compatible with and true true compatible with and true compatible with and true compatible with and true true compatible with and true true compatible with and true true true true compatible with and true compatible with and true for compatible with and true for compatible with and true for compatible with and true compatible with and true compatible with and true true manual sleep true true true notifications true notifications true true true true get down to for your device to see which features you ll get with the find your entering more information in the menus compatibility disabled hidden walks and hikes by using the app on your to track time and can also control your music and use voice cues to stay in workouts will pop up in your exercise calendar so you can look back on what you and use data trends to make progress toward your you hit a milestone or crush a you ll receive badges to share and keep you motivated to earn your tracker to record workouts or log them in the then see all your exercise their impact on your overall and how your performance is the app to share a view or a once you reached the peak of your and stats can be sent to friends and followers on any social or through and progress towards your daily goals for calories burned and active and see your trends over a to record your sleep at use the sleep tools in the app to set a weekly sleep create bedtime reminders and wake and review your sleep trends over your calorie intake in check and get nutritional insights by logging meals with the quick calorie estimator and meal you want to track your activity but don have a you can use your to record basic stats like distance and calories multiple trackers to one account and the app will automatically detect when you switch between you can wear during workouts and use to discreetly track your and to find and connect with friends so you can send motivational share stats and cheer each other log your water intake before workouts or throughout the check the app to see if you re properly with the on your to see stats like distance and time on and to map your routes during runs and encouraged to move more by using your steps to climb the or compete with friends and family in toward your ideal weight by choosing a goal like or and get on your calories in will pop up on your to give you a gentle push in the right direction and keep you moving towards your call and text notifications pop up on your tracker display when your phone is calendar alerts appear on your tracker display when your phone is your volume and pause or switch songs from your with a or switch songs from your with a simple new device compatible with the skinny on all things rights of and on a custom are experiencing technical please try again fix the following if if hrs months wk year mins years min sec secs hr month days day characters character typing your friends name or select from have no if return target if off show hide if return else if return else if return else if return else return for in try event expires new if table while if else if actual query string query parsed if table else for in cookie return return query if table new for return return acct is account function if loading of code script function if host if else if else if else if else if else not initialize account for given if function function else clear out the large cookie so new smaller size cookie is put in function function function for function return new for in if props new os function source if source return should be in if with code function function triggered from premium about page which open the cart triggered from page which open triggered from this is the conversion id check to see if timing is supported by the web browser if in in in function performance consumed preparing the new page query time connection time spent constructing the tree to completion of the loading spent during the request event time time from start to load if'
tp169
sg9
g10
(g12
S'\x95\x00\x00\x00\x00\x00\x00\x00'
tRp170
sg14
VFitbit Supported Devices
p171
sa(dp172
g3
Vhttps://www.motorola.com/us/products/moto-g
p173
sg5
VGet performance that's built to last with Moto G\u2074. Carrier-friendly, octa-core processor, advanced 13 MP camera and a pure Android\u2122 experience. Build yours.
p174
sg7
(g173
S'screen and screen and and screen and and screen and and screen and screen and and screen and a valid is necessary to check this you for signing up to receive updates about specials and news from make sure is on your approved to main content a box width screen and alignment fix initial auto screen and phones phones newest phones carrier compatibility your phone about about shells offers discount deals love for your love with an amazing phone all work your own the offers sale on offers discount sweats better designed for your most grueling workouts software and upgrade schedule software and favorite for updates forums other products updates warranty forums resources order status support profile stuff us phones phones newest phones carrier compatibility your phone about about all work your own compatible phones the offers discount software and upgrade schedule software and for updates forums support forums resources updates warranty have just added items in quantity twitter with performance and it faster shipping returns tech support yours to design yours with exclusive it faster for designs from shipping returns tech support with performance and on all major fast battery features in a phone that built to last works on all major carriers more better memories more battery and keep you moving more design slimmer design fits better in pockets more your own unique look in more with a display and memory built to keep up more fast processor multiple without slowing rear front camera design delivers charging enabled to hours of power in just minutes of repellent let or a little rain get in your for all major like and carriers and keep your swap carrier compatibility storage with automatically backed up and and get two years of storage at original memory a card up to full specifications including an up to processor with up to to battery for up to hours of power in minutes of charging repellent coating for added water resistance coverage varies by and with included adaptor in select tested is unlocked and confirmed to work on and is also compatible with most carriers but please contact your service provider for carrier compatibility balancing dual to digital to focus video video flash years of storage at original quality headset jack version loud or white from a variety of accents and yours it your in with unique combinations of storage engravings and yours stay in touch up to be the first to learn about specials and checking this agree to up up phones phones shells monitors headsets monitors office phones gateways monitors training charging headphones products support us resources team updates and the are registered trademarks of mobile phones are designed and manufactured by a wholly owned subsidiary of and other marks are trademarks of robot is reproduced or modified from work created and shared by and used according to terms described in the function cart if cart function sales and promotions subject to product specials and including may not be available for all if valid from at through at applies to purchases of and is subject to change at any to product purchase are ineligible for at checkout to receive a credit decision through and limitations read the terms and conditions for details that include how to make a cancel and list of coverage not available for extra columns from the and menus function must be substantially charging rate slows as charging battery life claims are approximate and based on an average mixed use profile that includes both usage and standby time on a settings are applied to the mixed use profile to project battery battery performance will vary and depends on many factors including signal network age of operating features device and and other application usage technology creates a water repellent barrier to help protect against moderate exposure to water such as accidental splashes or light designed to be submersed in or exposed to pressurized or other usable capacity will be less due to and operating card sold with restrictions may not be able to be moved to the functionality and product specifications may be network dependent and subject to additional and are subject to change without'
tp175
sg9
g10
(g12
S's\x00\x00\x00\x00\x00\x00\x00'
tRp176
sg14
VMoto G\u2074 - Unlocked Android Smartphone | Motorola
p177
sa(dp178
g3
Vhttps://shopping.yahoo.com/smartphone--shop
p179
sg5
VYahoo! Shopping is the best place to comparison shop for Smartphone. Compare products, compare prices, read reviews and merchant ratings.
p180
sg7
(g179
S'mail badge search box solid solid none buttons body solid solid a span screen and screen and the new cookies if if if if new if if if and display display only screen and only screen and only screen and only screen and only screen and only screen and table in for de all brands all colors or to top brands for for for for and and and and de de de de top stores out of results for list view grid view to to results from stores to to to to to to to to to to to to to from stores to the web for to see your products in with el'
tp181
sg9
g10
(g12
S'\x93\x00\x00\x00\x00\x00\x00\x00'
tRp182
sg14
VSmartphone - Cell Phones: Compare Prices, Reviews & Buy ...
p183
sa(dp184
g3
Vhttps://www.saygus.com
p185
sg5
VBe among the first to experience the Saygus Vsquared \u2013 the phone Gizmag called a \u201cBeast of a Smartphone\u201d and Forbes deemed \u201cTop Disruptive Innovation at CES ...
p186
sg7
(g185
S'hidden hidden function function with of the features you none none none select a payment minimum donation amount for this form select payment enter your first enter a valid lowercase letters and numbers are a the password must agree to the terms and select an view this protected enter the password of to of the where the of will be is done via the on of content content content content data content return return if of the to load via into the the which is once the with the has been clicked function to kill in case the going to be removed function how quick the window should be animated is if else if if else if drag drop for for on with of the features you back among the first to experience the the phone called a of a and deemed at notified first off off back back keys to increase or decrease keys to increase or decrease keys to advance one arrows to advance ten keys to advance one arrows to advance ten'
tp187
sg9
g10
(g12
S'\x80\x00\x00\x00\x00\x00\x00\x00'
tRp188
sg14
VSaygus | V SQUARED - The Smart Phone with ALL of the ...
p189
sa(dp190
g3
g173
sg5
g174
sg7
(g173
S'screen and screen and and screen and and screen and and screen and screen and and screen and a valid is necessary to check this you for signing up to receive updates about specials and news from make sure is on your approved to main content a box width screen and alignment fix initial auto screen and phones phones newest phones carrier compatibility your phone about about shells offers discount deals love for your love with an amazing phone all work your own the offers sale on offers discount sweats better designed for your most grueling workouts software and upgrade schedule software and favorite for updates forums other products updates warranty forums resources order status support profile stuff us phones phones newest phones carrier compatibility your phone about about all work your own compatible phones the offers discount software and upgrade schedule software and for updates forums support forums resources updates warranty have just added items in quantity twitter with performance and it faster shipping returns tech support yours to design yours with exclusive it faster for designs from shipping returns tech support with performance and on all major fast battery features in a phone that built to last works on all major carriers more better memories more battery and keep you moving more design slimmer design fits better in pockets more your own unique look in more with a display and memory built to keep up more fast processor multiple without slowing rear front camera design delivers charging enabled to hours of power in just minutes of repellent let or a little rain get in your for all major like and carriers and keep your swap carrier compatibility storage with automatically backed up and and get two years of storage at original memory a card up to full specifications including an up to processor with up to to battery for up to hours of power in minutes of charging repellent coating for added water resistance coverage varies by and with included adaptor in select tested is unlocked and confirmed to work on and is also compatible with most carriers but please contact your service provider for carrier compatibility balancing dual to digital to focus video video flash years of storage at original quality headset jack version loud or white from a variety of accents and yours it your in with unique combinations of storage engravings and yours stay in touch up to be the first to learn about specials and checking this agree to up up phones phones shells monitors headsets monitors office phones gateways monitors training charging headphones products support us resources team updates and the are registered trademarks of mobile phones are designed and manufactured by a wholly owned subsidiary of and other marks are trademarks of robot is reproduced or modified from work created and shared by and used according to terms described in the function cart if cart function sales and promotions subject to product specials and including may not be available for all if valid from at through at applies to purchases of and is subject to change at any to product purchase are ineligible for at checkout to receive a credit decision through and limitations read the terms and conditions for details that include how to make a cancel and list of coverage not available for extra columns from the and menus function must be substantially charging rate slows as charging battery life claims are approximate and based on an average mixed use profile that includes both usage and standby time on a settings are applied to the mixed use profile to project battery battery performance will vary and depends on many factors including signal network age of operating features device and and other application usage technology creates a water repellent barrier to help protect against moderate exposure to water such as accidental splashes or light designed to be submersed in or exposed to pressurized or other usable capacity will be less due to and operating card sold with restrictions may not be able to be moved to the functionality and product specifications may be network dependent and subject to additional and are subject to change without'
tp191
sg9
g10
(g12
S's\x00\x00\x00\x00\x00\x00\x00'
tRp192
sg14
g177
sa(dp193
g3
Vwww.sony.com/electronics/compact-cameras/t
p194
sg5
VCapture photos and Full HD video with Cyber-shot compact digital cameras by Sony. Explore a variety of easy to use, small cameras that fit in your pocket.
p195
sg7
(g194
S'win in win return new return this function return vita if return else return else return function font new in else functions for be executed from in to cinema products products products products products products products miss what among the first to get the latest news in your and best of what has to offer on or our looks like is disabled in your get the full experience on please change your settings to allow high to low to high to low to detail is measured in a key factor in digital image image sensors deliver higher increased depth of lower noise and more high resolution viewfinder delivers coverage for confident recording with image distortion for more realistic to compatible with the simplicity of for remote photo sharing and and super slow motion movie recording allows capturing moments with incredible resolution and and handy for everyday to optical zoom brings you results in a wireless and remote results based on your premium sensor compact camera with superior speed and up to continuous stacked image sensor with lens with premium sensor compact camera with superior speed and up to continuous stacked image sensor with lens with with zoom effective shooting with zoom effective shooting with sensor with with wide first optical variable with sensor with with wide first optical variable with stacked shooting with stacked shooting with optical optical zoom retractable with optical optical zoom retractable with optical zoom retractable with optical zoom retractable with shooting with shooting with optical zoom tilting with optical zoom tilting with sensitivity range with sensitivity range with inch zoom sharing and remote with inch zoom sharing and remote with inch inch electronic viewfinder with inch inch electronic viewfinder with inch inch sharing and remote with inch inch sharing and remote with inch inch manual with inch inch manual with image with image with optical zoom lens by sharing and with optical zoom lens by sharing and with optical zoom by image with optical zoom by image optical zoom lens by image optical zoom lens by image with optical zoom lens by image with optical zoom lens by image with with optical sharing and with with optical sharing and with optical sharing and with optical sharing and with optical zoom lens by everything with a with optical zoom lens by everything with a with optical everything with a with optical everything with a with optical zoom lens by to with optical zoom lens by to sign and us on us on us on us on us on on us on us on and site is not optimized for your current recommend downloading and installing the latest version of one of the following site is not optimized for your current newer version of your browser may be the latest the latest the latest the latest with current browser for with current browser for now'
tp196
sg9
g10
(g12
S'u\x00\x00\x00\x00\x00\x00\x00'
tRp197
sg14
VCompact Cameras | Small Digital Pocket Cameras | Sony US
p198
sa(dp199
g3
Velectronics.howstuffworks.com/...tech-gadgets/...right-smartphone.htm
p200
sg5
VLots of people feel completely lost when picking a smartphone. Here are five tips for picking the right smartphone to get started.
p201
sg7
(g200
S"function if and extract any referral tracking data if for pair media referral tracking if not on use ad unit name id domain account suites title tax template search content sponsor source author show model view width video page abs user set test case using hash on if if if any referral data if new if function function us on activate for mobile users if if to push event to via if event navigation us page is not but we find the page you try again or use our site add this graphic if we're not on mobile if us with you on your or favorite the best of by up to date this long verbose error message to check the of to to in division of new new function new settled with new settled with function new function new new function function new function void new new new new this new styles for if else error"
tp202
sg9
g10
(g12
S'|\x00\x00\x00\x00\x00\x00\x00'
tRp203
sg14
V5 Tips for Picking the Right Smartphone | HowStuffWorks
p204
sa.